
main.raw:     file format elf32-littleriscv


Disassembly of section .main:

80000000 <start>:
80000000:	388000ef          	jal	ra,80000388 <main>
80000004:	00200073          	uret

80000008 <memset>:

#define bool _Bool
#define false 0
#define true 1

void memset(char *p, char val, unsigned long count){
80000008:	fd010113          	addi	sp,sp,-48
8000000c:	02812623          	sw	s0,44(sp)
80000010:	03010413          	addi	s0,sp,48
80000014:	fca42e23          	sw	a0,-36(s0)
80000018:	00058793          	mv	a5,a1
8000001c:	fcc42a23          	sw	a2,-44(s0)
80000020:	fcf40da3          	sb	a5,-37(s0)
    for(int i = 0; i < count; ++i){
80000024:	fe042623          	sw	zero,-20(s0)
80000028:	0240006f          	j	8000004c <memset+0x44>
        p[i] = val;
8000002c:	fec42783          	lw	a5,-20(s0)
80000030:	fdc42703          	lw	a4,-36(s0)
80000034:	00f707b3          	add	a5,a4,a5
80000038:	fdb44703          	lbu	a4,-37(s0)
8000003c:	00e78023          	sb	a4,0(a5)
    for(int i = 0; i < count; ++i){
80000040:	fec42783          	lw	a5,-20(s0)
80000044:	00178793          	addi	a5,a5,1
80000048:	fef42623          	sw	a5,-20(s0)
8000004c:	fec42783          	lw	a5,-20(s0)
80000050:	fd442703          	lw	a4,-44(s0)
80000054:	fce7ece3          	bltu	a5,a4,8000002c <memset+0x24>
    }
}
80000058:	00000013          	nop
8000005c:	00000013          	nop
80000060:	02c12403          	lw	s0,44(sp)
80000064:	03010113          	addi	sp,sp,48
80000068:	00008067          	ret

8000006c <putchar>:

void putchar(char c) {
8000006c:	fd010113          	addi	sp,sp,-48
80000070:	02812623          	sw	s0,44(sp)
80000074:	03010413          	addi	s0,sp,48
80000078:	00050793          	mv	a5,a0
8000007c:	fcf40fa3          	sb	a5,-33(s0)
    volatile char* p = (char*)PRINTER_ADDR;
80000080:	900007b7          	lui	a5,0x90000
80000084:	fef42623          	sw	a5,-20(s0)
    *p = c;
80000088:	fec42783          	lw	a5,-20(s0)
8000008c:	fdf44703          	lbu	a4,-33(s0)
80000090:	00e78023          	sb	a4,0(a5) # 90000000 <main+0xffffc78>
}
80000094:	00000013          	nop
80000098:	02c12403          	lw	s0,44(sp)
8000009c:	03010113          	addi	sp,sp,48
800000a0:	00008067          	ret

800000a4 <puts>:

void puts(char* s){
800000a4:	fd010113          	addi	sp,sp,-48
800000a8:	02112623          	sw	ra,44(sp)
800000ac:	02812423          	sw	s0,40(sp)
800000b0:	03010413          	addi	s0,sp,48
800000b4:	fca42e23          	sw	a0,-36(s0)
    for(char* p = s; *p != 0; ++p){
800000b8:	fdc42783          	lw	a5,-36(s0)
800000bc:	fef42623          	sw	a5,-20(s0)
800000c0:	0200006f          	j	800000e0 <puts+0x3c>
        putchar(*p);
800000c4:	fec42783          	lw	a5,-20(s0)
800000c8:	0007c783          	lbu	a5,0(a5)
800000cc:	00078513          	mv	a0,a5
800000d0:	f9dff0ef          	jal	ra,8000006c <putchar>
    for(char* p = s; *p != 0; ++p){
800000d4:	fec42783          	lw	a5,-20(s0)
800000d8:	00178793          	addi	a5,a5,1
800000dc:	fef42623          	sw	a5,-20(s0)
800000e0:	fec42783          	lw	a5,-20(s0)
800000e4:	0007c783          	lbu	a5,0(a5)
800000e8:	fc079ee3          	bnez	a5,800000c4 <puts+0x20>
    }
}
800000ec:	00000013          	nop
800000f0:	00000013          	nop
800000f4:	02c12083          	lw	ra,44(sp)
800000f8:	02812403          	lw	s0,40(sp)
800000fc:	03010113          	addi	sp,sp,48
80000100:	00008067          	ret

80000104 <try_int2s>:

bool try_int2s(unsigned int num, char* output, int len){
80000104:	fd010113          	addi	sp,sp,-48
80000108:	02812623          	sw	s0,44(sp)
8000010c:	03010413          	addi	s0,sp,48
80000110:	fca42e23          	sw	a0,-36(s0)
80000114:	fcb42c23          	sw	a1,-40(s0)
80000118:	fcc42a23          	sw	a2,-44(s0)
8000011c:	00010693          	mv	a3,sp
80000120:	00068593          	mv	a1,a3
    
    if(len < 2) return false;
80000124:	fd442603          	lw	a2,-44(s0)
80000128:	00100693          	li	a3,1
8000012c:	00c6c663          	blt	a3,a2,80000138 <try_int2s+0x34>
80000130:	00000793          	li	a5,0
80000134:	1700006f          	j	800002a4 <try_int2s+0x1a0>
    
    if(num == 0){
80000138:	fdc42683          	lw	a3,-36(s0)
8000013c:	02069263          	bnez	a3,80000160 <try_int2s+0x5c>
        output[0] = '0';
80000140:	fd842783          	lw	a5,-40(s0)
80000144:	03000713          	li	a4,48
80000148:	00e78023          	sb	a4,0(a5)
        output[1] = 0;
8000014c:	fd842783          	lw	a5,-40(s0)
80000150:	00178793          	addi	a5,a5,1
80000154:	00078023          	sb	zero,0(a5)
        return true;
80000158:	00100793          	li	a5,1
8000015c:	1480006f          	j	800002a4 <try_int2s+0x1a0>
    }

    char buffer[len];
80000160:	fd442683          	lw	a3,-44(s0)
80000164:	fff68613          	addi	a2,a3,-1
80000168:	fec42223          	sw	a2,-28(s0)
8000016c:	00068613          	mv	a2,a3
80000170:	00060e13          	mv	t3,a2
80000174:	00000e93          	li	t4,0
80000178:	01de5613          	srli	a2,t3,0x1d
8000017c:	003e9893          	slli	a7,t4,0x3
80000180:	011668b3          	or	a7,a2,a7
80000184:	003e1813          	slli	a6,t3,0x3
80000188:	00068613          	mv	a2,a3
8000018c:	00060313          	mv	t1,a2
80000190:	00000393          	li	t2,0
80000194:	01d35613          	srli	a2,t1,0x1d
80000198:	00339793          	slli	a5,t2,0x3
8000019c:	00f667b3          	or	a5,a2,a5
800001a0:	00331713          	slli	a4,t1,0x3
800001a4:	00068793          	mv	a5,a3
800001a8:	00f78793          	addi	a5,a5,15
800001ac:	0047d793          	srli	a5,a5,0x4
800001b0:	00479793          	slli	a5,a5,0x4
800001b4:	40f10133          	sub	sp,sp,a5
800001b8:	00010793          	mv	a5,sp
800001bc:	00078793          	mv	a5,a5
800001c0:	fef42023          	sw	a5,-32(s0)
    int i;
    for(i = 0; i < len; i++){
800001c4:	fe042623          	sw	zero,-20(s0)
800001c8:	0500006f          	j	80000218 <try_int2s+0x114>
        buffer[i] = '0' + num % 10;
800001cc:	fdc42703          	lw	a4,-36(s0)
800001d0:	00a00793          	li	a5,10
800001d4:	02f777b3          	remu	a5,a4,a5
800001d8:	0ff7f793          	zext.b	a5,a5
800001dc:	03078793          	addi	a5,a5,48
800001e0:	0ff7f713          	zext.b	a4,a5
800001e4:	fe042683          	lw	a3,-32(s0)
800001e8:	fec42783          	lw	a5,-20(s0)
800001ec:	00f687b3          	add	a5,a3,a5
800001f0:	00e78023          	sb	a4,0(a5)
        num /= 10;
800001f4:	fdc42703          	lw	a4,-36(s0)
800001f8:	00a00793          	li	a5,10
800001fc:	02f757b3          	divu	a5,a4,a5
80000200:	fcf42e23          	sw	a5,-36(s0)
        if(num == 0)
80000204:	fdc42783          	lw	a5,-36(s0)
80000208:	02078063          	beqz	a5,80000228 <try_int2s+0x124>
    for(i = 0; i < len; i++){
8000020c:	fec42783          	lw	a5,-20(s0)
80000210:	00178793          	addi	a5,a5,1
80000214:	fef42623          	sw	a5,-20(s0)
80000218:	fec42703          	lw	a4,-20(s0)
8000021c:	fd442783          	lw	a5,-44(s0)
80000220:	faf746e3          	blt	a4,a5,800001cc <try_int2s+0xc8>
80000224:	0080006f          	j	8000022c <try_int2s+0x128>
            break;
80000228:	00000013          	nop
    }
    // The last written index is i
    
    if(i >= len - 1)
8000022c:	fd442783          	lw	a5,-44(s0)
80000230:	fff78793          	addi	a5,a5,-1
80000234:	fec42703          	lw	a4,-20(s0)
80000238:	00f74663          	blt	a4,a5,80000244 <try_int2s+0x140>
        return false;
8000023c:	00000793          	li	a5,0
80000240:	0640006f          	j	800002a4 <try_int2s+0x1a0>

    for(int j = 0; j <= i; ++j){
80000244:	fe042423          	sw	zero,-24(s0)
80000248:	0380006f          	j	80000280 <try_int2s+0x17c>
        output[j] = buffer[i - j];
8000024c:	fec42703          	lw	a4,-20(s0)
80000250:	fe842783          	lw	a5,-24(s0)
80000254:	40f70733          	sub	a4,a4,a5
80000258:	fe842783          	lw	a5,-24(s0)
8000025c:	fd842683          	lw	a3,-40(s0)
80000260:	00f687b3          	add	a5,a3,a5
80000264:	fe042683          	lw	a3,-32(s0)
80000268:	00e68733          	add	a4,a3,a4
8000026c:	00074703          	lbu	a4,0(a4)
80000270:	00e78023          	sb	a4,0(a5)
    for(int j = 0; j <= i; ++j){
80000274:	fe842783          	lw	a5,-24(s0)
80000278:	00178793          	addi	a5,a5,1
8000027c:	fef42423          	sw	a5,-24(s0)
80000280:	fe842703          	lw	a4,-24(s0)
80000284:	fec42783          	lw	a5,-20(s0)
80000288:	fce7d2e3          	bge	a5,a4,8000024c <try_int2s+0x148>
    }
    output[i + 1] = 0;
8000028c:	fec42783          	lw	a5,-20(s0)
80000290:	00178793          	addi	a5,a5,1
80000294:	fd842703          	lw	a4,-40(s0)
80000298:	00f707b3          	add	a5,a4,a5
8000029c:	00078023          	sb	zero,0(a5)
    return true;
800002a0:	00100793          	li	a5,1
800002a4:	00058113          	mv	sp,a1
}
800002a8:	00078513          	mv	a0,a5
800002ac:	fd040113          	addi	sp,s0,-48
800002b0:	02c12403          	lw	s0,44(sp)
800002b4:	03010113          	addi	sp,sp,48
800002b8:	00008067          	ret

800002bc <print_int>:

#define print_int_buf_len 32

void print_int(unsigned int num){
800002bc:	fc010113          	addi	sp,sp,-64
800002c0:	02112e23          	sw	ra,60(sp)
800002c4:	02812c23          	sw	s0,56(sp)
800002c8:	04010413          	addi	s0,sp,64
800002cc:	fca42623          	sw	a0,-52(s0)
    char buffer[print_int_buf_len] = {0};
800002d0:	fc042823          	sw	zero,-48(s0)
800002d4:	fc042a23          	sw	zero,-44(s0)
800002d8:	fc042c23          	sw	zero,-40(s0)
800002dc:	fc042e23          	sw	zero,-36(s0)
800002e0:	fe042023          	sw	zero,-32(s0)
800002e4:	fe042223          	sw	zero,-28(s0)
800002e8:	fe042423          	sw	zero,-24(s0)
800002ec:	fe042623          	sw	zero,-20(s0)
    if(try_int2s(num, buffer, print_int_buf_len)){
800002f0:	fd040793          	addi	a5,s0,-48
800002f4:	02000613          	li	a2,32
800002f8:	00078593          	mv	a1,a5
800002fc:	fcc42503          	lw	a0,-52(s0)
80000300:	e05ff0ef          	jal	ra,80000104 <try_int2s>
80000304:	00050793          	mv	a5,a0
80000308:	00078c63          	beqz	a5,80000320 <print_int+0x64>
        puts(buffer);
8000030c:	fd040793          	addi	a5,s0,-48
80000310:	00078513          	mv	a0,a5
80000314:	d91ff0ef          	jal	ra,800000a4 <puts>
        putchar('\n');
80000318:	00a00513          	li	a0,10
8000031c:	d51ff0ef          	jal	ra,8000006c <putchar>
    }
}
80000320:	00000013          	nop
80000324:	03c12083          	lw	ra,60(sp)
80000328:	03812403          	lw	s0,56(sp)
8000032c:	04010113          	addi	sp,sp,64
80000330:	00008067          	ret

80000334 <factorial_rec>:

unsigned int factorial_rec(unsigned int n){
80000334:	fe010113          	addi	sp,sp,-32
80000338:	00112e23          	sw	ra,28(sp)
8000033c:	00812c23          	sw	s0,24(sp)
80000340:	02010413          	addi	s0,sp,32
80000344:	fea42623          	sw	a0,-20(s0)
    if(n == 0) return 1;
80000348:	fec42783          	lw	a5,-20(s0)
8000034c:	00079663          	bnez	a5,80000358 <factorial_rec+0x24>
80000350:	00100793          	li	a5,1
80000354:	0200006f          	j	80000374 <factorial_rec+0x40>
    return n * factorial_rec(n - 1);
80000358:	fec42783          	lw	a5,-20(s0)
8000035c:	fff78793          	addi	a5,a5,-1
80000360:	00078513          	mv	a0,a5
80000364:	fd1ff0ef          	jal	ra,80000334 <factorial_rec>
80000368:	00050713          	mv	a4,a0
8000036c:	fec42783          	lw	a5,-20(s0)
80000370:	02f707b3          	mul	a5,a4,a5
}
80000374:	00078513          	mv	a0,a5
80000378:	01c12083          	lw	ra,28(sp)
8000037c:	01812403          	lw	s0,24(sp)
80000380:	02010113          	addi	sp,sp,32
80000384:	00008067          	ret

80000388 <main>:

void main(void) {
80000388:	ff010113          	addi	sp,sp,-16
8000038c:	00112623          	sw	ra,12(sp)
80000390:	00812423          	sw	s0,8(sp)
80000394:	01010413          	addi	s0,sp,16
    puts("Hello world!\n");
80000398:	800007b7          	lui	a5,0x80000
8000039c:	3d478513          	addi	a0,a5,980 # 800003d4 <main+0x4c>
800003a0:	d05ff0ef          	jal	ra,800000a4 <puts>
    print_int(42);
800003a4:	02a00513          	li	a0,42
800003a8:	f15ff0ef          	jal	ra,800002bc <print_int>
    print_int(factorial_rec(12));
800003ac:	00c00513          	li	a0,12
800003b0:	f85ff0ef          	jal	ra,80000334 <factorial_rec>
800003b4:	00050793          	mv	a5,a0
800003b8:	00078513          	mv	a0,a5
800003bc:	f01ff0ef          	jal	ra,800002bc <print_int>
800003c0:	00000013          	nop
800003c4:	00c12083          	lw	ra,12(sp)
800003c8:	00812403          	lw	s0,8(sp)
800003cc:	01010113          	addi	sp,sp,16
800003d0:	00008067          	ret
800003d4:	6548                	.2byte	0x6548
800003d6:	6c6c                	.2byte	0x6c6c
800003d8:	6f77206f          	j	800732ce <main+0x72f46>
800003dc:	6c72                	.2byte	0x6c72
800003de:	2164                	.2byte	0x2164
800003e0:	000a                	.2byte	0xa
