
main.raw:     file format elf32-sh


Disassembly of section .vectors:

00000000 <.vectors>:
   0:	00 00       	.word 0x0000
   2:	04 00       	.word 0x0400
   4:	ff ff       	.word 0xffff
   6:	d0 00       	mov.l	8 <start-0x3f8>,r0

Disassembly of section .main:

00000400 <start>:
 400:	d0 01       	mov.l	408 <main_addr>,r0	! de4 <_main>
 402:	40 0b       	jsr	@r0
 404:	00 09       	nop	
 406:	82 00       	.word 0x8200

00000408 <main_addr>:
 408:	00 00       	.word 0x0000
 40a:	0d e4       	mov.b	r14,@(r0,r13)

0000040c <_memset>:
#define bool _Bool
#define false 0
#define true 1

void memset(char *p, char val, unsigned long count)
{
 40c:	2f e6       	mov.l	r14,@-r15
 40e:	7f f0       	add	#-16,r15
 410:	6e f3       	mov	r15,r14
 412:	61 e3       	mov	r14,r1
 414:	71 d0       	add	#-48,r1
 416:	11 4e       	mov.l	r4,@(56,r1)
 418:	62 53       	mov	r5,r2
 41a:	61 e3       	mov	r14,r1
 41c:	71 d0       	add	#-48,r1
 41e:	11 6c       	mov.l	r6,@(48,r1)
 420:	61 e3       	mov	r14,r1
 422:	60 23       	mov	r2,r0
 424:	80 14       	mov.b	r0,@(4,r1)
    for (int i = 0; i < count; ++i) {
 426:	61 e3       	mov	r14,r1
 428:	71 d0       	add	#-48,r1
 42a:	e2 00       	mov	#0,r2
 42c:	11 2f       	mov.l	r2,@(60,r1)
 42e:	a0 12       	bra	456 <_memset+0x4a>
 430:	00 09       	nop	
        p[i] = val;
 432:	61 e3       	mov	r14,r1
 434:	71 d0       	add	#-48,r1
 436:	51 1f       	mov.l	@(60,r1),r1
 438:	62 e3       	mov	r14,r2
 43a:	72 d0       	add	#-48,r2
 43c:	52 2e       	mov.l	@(56,r2),r2
 43e:	31 2c       	add	r2,r1
 440:	62 e3       	mov	r14,r2
 442:	84 24       	mov.b	@(4,r2),r0
 444:	62 03       	mov	r0,r2
 446:	21 20       	mov.b	r2,@r1
    for (int i = 0; i < count; ++i) {
 448:	61 e3       	mov	r14,r1
 44a:	71 d0       	add	#-48,r1
 44c:	62 e3       	mov	r14,r2
 44e:	72 d0       	add	#-48,r2
 450:	52 2f       	mov.l	@(60,r2),r2
 452:	72 01       	add	#1,r2
 454:	11 2f       	mov.l	r2,@(60,r1)
 456:	61 e3       	mov	r14,r1
 458:	71 d0       	add	#-48,r1
 45a:	51 1f       	mov.l	@(60,r1),r1
 45c:	62 e3       	mov	r14,r2
 45e:	72 d0       	add	#-48,r2
 460:	52 2c       	mov.l	@(48,r2),r2
 462:	32 16       	cmp/hi	r1,r2
 464:	89 e5       	bt	432 <_memset+0x26>
    }
}
 466:	00 09       	nop	
 468:	00 09       	nop	
 46a:	7e 10       	add	#16,r14
 46c:	6f e3       	mov	r14,r15
 46e:	6e f6       	mov.l	@r15+,r14
 470:	00 0b       	rts	
 472:	00 09       	nop	

00000474 <_putchar>:

void putchar(char c)
{
 474:	2f e6       	mov.l	r14,@-r15
 476:	7f f8       	add	#-8,r15
 478:	6e f3       	mov	r15,r14
 47a:	62 43       	mov	r4,r2
 47c:	61 e3       	mov	r14,r1
 47e:	71 f8       	add	#-8,r1
 480:	60 23       	mov	r2,r0
 482:	80 18       	mov.b	r0,@(8,r1)
    volatile char *p = (char *) PRINTER_ADDR;
 484:	61 e3       	mov	r14,r1
 486:	71 c8       	add	#-56,r1
 488:	d2 07       	mov.l	4a8 <_putchar+0x34>,r2	! 90000000
 48a:	11 2f       	mov.l	r2,@(60,r1)
    *p = c;
 48c:	61 e3       	mov	r14,r1
 48e:	71 c8       	add	#-56,r1
 490:	51 1f       	mov.l	@(60,r1),r1
 492:	62 e3       	mov	r14,r2
 494:	72 f8       	add	#-8,r2
 496:	84 28       	mov.b	@(8,r2),r0
 498:	62 03       	mov	r0,r2
 49a:	21 20       	mov.b	r2,@r1
}
 49c:	00 09       	nop	
 49e:	7e 08       	add	#8,r14
 4a0:	6f e3       	mov	r14,r15
 4a2:	6e f6       	mov.l	@r15+,r14
 4a4:	00 0b       	rts	
 4a6:	00 09       	nop	
 4a8:	90 00       	mov.w	4ac <_puts>,r0	! 2fe6
	...

000004ac <_puts>:

void puts(char *s)
{
 4ac:	2f e6       	mov.l	r14,@-r15
 4ae:	4f 22       	sts.l	pr,@-r15
 4b0:	7f f8       	add	#-8,r15
 4b2:	6e f3       	mov	r15,r14
 4b4:	61 e3       	mov	r14,r1
 4b6:	71 c8       	add	#-56,r1
 4b8:	11 4e       	mov.l	r4,@(56,r1)
    for (char *p = s; *p != 0; ++p) {
 4ba:	61 e3       	mov	r14,r1
 4bc:	71 c8       	add	#-56,r1
 4be:	62 e3       	mov	r14,r2
 4c0:	72 c8       	add	#-56,r2
 4c2:	52 2e       	mov.l	@(56,r2),r2
 4c4:	11 2f       	mov.l	r2,@(60,r1)
 4c6:	a0 0f       	bra	4e8 <_puts+0x3c>
 4c8:	00 09       	nop	
        putchar(*p);
 4ca:	61 e3       	mov	r14,r1
 4cc:	71 c8       	add	#-56,r1
 4ce:	51 1f       	mov.l	@(60,r1),r1
 4d0:	61 10       	mov.b	@r1,r1
 4d2:	64 13       	mov	r1,r4
 4d4:	d1 0b       	mov.l	504 <_puts+0x58>,r1	! 474 <_putchar>
 4d6:	41 0b       	jsr	@r1
 4d8:	00 09       	nop	
    for (char *p = s; *p != 0; ++p) {
 4da:	61 e3       	mov	r14,r1
 4dc:	71 c8       	add	#-56,r1
 4de:	62 e3       	mov	r14,r2
 4e0:	72 c8       	add	#-56,r2
 4e2:	52 2f       	mov.l	@(60,r2),r2
 4e4:	72 01       	add	#1,r2
 4e6:	11 2f       	mov.l	r2,@(60,r1)
 4e8:	61 e3       	mov	r14,r1
 4ea:	71 c8       	add	#-56,r1
 4ec:	51 1f       	mov.l	@(60,r1),r1
 4ee:	61 10       	mov.b	@r1,r1
 4f0:	21 18       	tst	r1,r1
 4f2:	8b ea       	bf	4ca <_puts+0x1e>
    }
}
 4f4:	00 09       	nop	
 4f6:	00 09       	nop	
 4f8:	7e 08       	add	#8,r14
 4fa:	6f e3       	mov	r14,r15
 4fc:	4f 26       	lds.l	@r15+,pr
 4fe:	6e f6       	mov.l	@r15+,r14
 500:	00 0b       	rts	
 502:	00 09       	nop	
 504:	00 00       	.word 0x0000
 506:	04 74       	mov.b	r7,@(r0,r4)

00000508 <_try_int2s>:

bool try_int2s(unsigned int num, char *output, int len)
{
 508:	2f 86       	mov.l	r8,@-r15
 50a:	2f 96       	mov.l	r9,@-r15
 50c:	2f a6       	mov.l	r10,@-r15
 50e:	2f b6       	mov.l	r11,@-r15
 510:	2f e6       	mov.l	r14,@-r15
 512:	7f e4       	add	#-28,r15
 514:	6e f3       	mov	r15,r14
 516:	67 e3       	mov	r14,r7
 518:	77 dc       	add	#-36,r7
 51a:	17 4b       	mov.l	r4,@(44,r7)
 51c:	67 e3       	mov	r14,r7
 51e:	77 dc       	add	#-36,r7
 520:	17 5a       	mov.l	r5,@(40,r7)
 522:	67 e3       	mov	r14,r7
 524:	77 dc       	add	#-36,r7
 526:	17 69       	mov.l	r6,@(36,r7)
 528:	67 f3       	mov	r15,r7
 52a:	64 73       	mov	r7,r4

    if (len < 2) {
 52c:	67 e3       	mov	r14,r7
 52e:	77 dc       	add	#-36,r7
 530:	56 79       	mov.l	@(36,r7),r6
 532:	e7 01       	mov	#1,r7
 534:	36 77       	cmp/gt	r7,r6
 536:	89 02       	bt	53e <_try_int2s+0x36>
        return false;
 538:	e1 00       	mov	#0,r1
 53a:	a0 ca       	bra	6d2 <_try_int2s+0x1ca>
 53c:	00 09       	nop	
    }

    if (num == 0) {
 53e:	67 e3       	mov	r14,r7
 540:	77 dc       	add	#-36,r7
 542:	57 7b       	mov.l	@(44,r7),r7
 544:	27 78       	tst	r7,r7
 546:	8b 0d       	bf	564 <_try_int2s+0x5c>
        output[0] = '0';
 548:	61 e3       	mov	r14,r1
 54a:	71 dc       	add	#-36,r1
 54c:	51 1a       	mov.l	@(40,r1),r1
 54e:	e2 30       	mov	#48,r2
 550:	21 20       	mov.b	r2,@r1
        output[1] = 0;
 552:	61 e3       	mov	r14,r1
 554:	71 dc       	add	#-36,r1
 556:	51 1a       	mov.l	@(40,r1),r1
 558:	71 01       	add	#1,r1
 55a:	e2 00       	mov	#0,r2
 55c:	21 20       	mov.b	r2,@r1
        return true;
 55e:	e1 01       	mov	#1,r1
 560:	a0 b7       	bra	6d2 <_try_int2s+0x1ca>
 562:	00 09       	nop	
    }

    char buffer[len];
 564:	67 e3       	mov	r14,r7
 566:	77 dc       	add	#-36,r7
 568:	57 79       	mov.l	@(36,r7),r7
 56a:	66 73       	mov	r7,r6
 56c:	76 ff       	add	#-1,r6
 56e:	65 63       	mov	r6,r5
 570:	66 e3       	mov	r14,r6
 572:	76 dc       	add	#-36,r6
 574:	16 5d       	mov.l	r5,@(52,r6)
 576:	66 73       	mov	r7,r6
 578:	61 63       	mov	r6,r1
 57a:	e0 00       	mov	#0,r0
 57c:	66 13       	mov	r1,r6
 57e:	46 29       	shlr16	r6
 580:	36 6c       	add	r6,r6
 582:	46 08       	shll2	r6
 584:	46 29       	shlr16	r6
 586:	6b 13       	mov	r1,r11
 588:	4b 08       	shll2	r11
 58a:	3b bc       	add	r11,r11
 58c:	61 03       	mov	r0,r1
 58e:	41 08       	shll2	r1
 590:	31 1c       	add	r1,r1
 592:	6a 63       	mov	r6,r10
 594:	2a 1b       	or	r1,r10
 596:	61 73       	mov	r7,r1
 598:	63 13       	mov	r1,r3
 59a:	e2 00       	mov	#0,r2
 59c:	66 33       	mov	r3,r6
 59e:	46 29       	shlr16	r6
 5a0:	36 6c       	add	r6,r6
 5a2:	46 08       	shll2	r6
 5a4:	46 29       	shlr16	r6
 5a6:	69 33       	mov	r3,r9
 5a8:	49 08       	shll2	r9
 5aa:	39 9c       	add	r9,r9
 5ac:	61 23       	mov	r2,r1
 5ae:	41 08       	shll2	r1
 5b0:	31 1c       	add	r1,r1
 5b2:	68 63       	mov	r6,r8
 5b4:	28 1b       	or	r1,r8
 5b6:	62 73       	mov	r7,r2
 5b8:	61 e3       	mov	r14,r1
 5ba:	71 dc       	add	#-36,r1
 5bc:	72 03       	add	#3,r2
 5be:	42 09       	shlr2	r2
 5c0:	42 08       	shll2	r2
 5c2:	3f 28       	sub	r2,r15
 5c4:	62 f3       	mov	r15,r2
 5c6:	11 2c       	mov.l	r2,@(48,r1)
    int i;
    for (i = 0; i < len; i++) {
 5c8:	61 e3       	mov	r14,r1
 5ca:	71 dc       	add	#-36,r1
 5cc:	e2 00       	mov	#0,r2
 5ce:	11 2f       	mov.l	r2,@(60,r1)
 5d0:	a0 34       	bra	63c <_try_int2s+0x134>
 5d2:	00 09       	nop	
        buffer[i] = '0' + num % 10;
 5d4:	61 e3       	mov	r14,r1
 5d6:	71 dc       	add	#-36,r1
 5d8:	53 1b       	mov.l	@(44,r1),r3
 5da:	d1 43       	mov.l	6e8 <_try_int2s+0x1e0>,r1	! cccccccd
 5dc:	33 15       	dmulu.l	r1,r3
 5de:	01 0a       	sts	mach,r1
 5e0:	00 09       	nop	
 5e2:	62 13       	mov	r1,r2
 5e4:	42 09       	shlr2	r2
 5e6:	42 01       	shlr	r2
 5e8:	61 23       	mov	r2,r1
 5ea:	41 08       	shll2	r1
 5ec:	31 2c       	add	r2,r1
 5ee:	31 1c       	add	r1,r1
 5f0:	62 33       	mov	r3,r2
 5f2:	32 18       	sub	r1,r2
 5f4:	61 2c       	extu.b	r2,r1
 5f6:	71 30       	add	#48,r1
 5f8:	61 1c       	extu.b	r1,r1
 5fa:	62 1e       	exts.b	r1,r2
 5fc:	61 e3       	mov	r14,r1
 5fe:	71 dc       	add	#-36,r1
 600:	53 1c       	mov.l	@(48,r1),r3
 602:	61 e3       	mov	r14,r1
 604:	71 dc       	add	#-36,r1
 606:	51 1f       	mov.l	@(60,r1),r1
 608:	31 3c       	add	r3,r1
 60a:	21 20       	mov.b	r2,@r1
        num /= 10;
 60c:	61 e3       	mov	r14,r1
 60e:	71 dc       	add	#-36,r1
 610:	62 e3       	mov	r14,r2
 612:	72 dc       	add	#-36,r2
 614:	53 2b       	mov.l	@(44,r2),r3
 616:	d2 34       	mov.l	6e8 <_try_int2s+0x1e0>,r2	! cccccccd
 618:	33 25       	dmulu.l	r2,r3
 61a:	02 0a       	sts	mach,r2
 61c:	00 09       	nop	
 61e:	42 09       	shlr2	r2
 620:	42 01       	shlr	r2
 622:	11 2b       	mov.l	r2,@(44,r1)
        if (num == 0) {
 624:	61 e3       	mov	r14,r1
 626:	71 dc       	add	#-36,r1
 628:	51 1b       	mov.l	@(44,r1),r1
 62a:	21 18       	tst	r1,r1
 62c:	89 10       	bt	650 <_try_int2s+0x148>
    for (i = 0; i < len; i++) {
 62e:	61 e3       	mov	r14,r1
 630:	71 dc       	add	#-36,r1
 632:	62 e3       	mov	r14,r2
 634:	72 dc       	add	#-36,r2
 636:	52 2f       	mov.l	@(60,r2),r2
 638:	72 01       	add	#1,r2
 63a:	11 2f       	mov.l	r2,@(60,r1)
 63c:	62 e3       	mov	r14,r2
 63e:	72 dc       	add	#-36,r2
 640:	61 e3       	mov	r14,r1
 642:	71 dc       	add	#-36,r1
 644:	52 2f       	mov.l	@(60,r2),r2
 646:	51 19       	mov.l	@(36,r1),r1
 648:	32 13       	cmp/ge	r1,r2
 64a:	8b c3       	bf	5d4 <_try_int2s+0xcc>
 64c:	a0 01       	bra	652 <_try_int2s+0x14a>
 64e:	00 09       	nop	
            break;
 650:	00 09       	nop	
        }
    }
    // The last written index is i
    // We need to write i chars + 1 '\0', so we need i+1 bytes total
    if (i >= len - 1) {
 652:	61 e3       	mov	r14,r1
 654:	71 dc       	add	#-36,r1
 656:	51 19       	mov.l	@(36,r1),r1
 658:	71 ff       	add	#-1,r1
 65a:	62 e3       	mov	r14,r2
 65c:	72 dc       	add	#-36,r2
 65e:	52 2f       	mov.l	@(60,r2),r2
 660:	32 13       	cmp/ge	r1,r2
 662:	8b 02       	bf	66a <_try_int2s+0x162>
        return false;
 664:	e1 00       	mov	#0,r1
 666:	a0 34       	bra	6d2 <_try_int2s+0x1ca>
 668:	00 09       	nop	
    }

    for (int j = 0; j <= i; ++j) {
 66a:	61 e3       	mov	r14,r1
 66c:	71 dc       	add	#-36,r1
 66e:	e2 00       	mov	#0,r2
 670:	11 2e       	mov.l	r2,@(56,r1)
 672:	a0 1b       	bra	6ac <_try_int2s+0x1a4>
 674:	00 09       	nop	
        output[j] = buffer[i - j];
 676:	62 e3       	mov	r14,r2
 678:	72 dc       	add	#-36,r2
 67a:	61 e3       	mov	r14,r1
 67c:	71 dc       	add	#-36,r1
 67e:	52 2f       	mov.l	@(60,r2),r2
 680:	51 1e       	mov.l	@(56,r1),r1
 682:	32 18       	sub	r1,r2
 684:	61 e3       	mov	r14,r1
 686:	71 dc       	add	#-36,r1
 688:	51 1e       	mov.l	@(56,r1),r1
 68a:	63 e3       	mov	r14,r3
 68c:	73 dc       	add	#-36,r3
 68e:	53 3a       	mov.l	@(40,r3),r3
 690:	31 3c       	add	r3,r1
 692:	63 e3       	mov	r14,r3
 694:	73 dc       	add	#-36,r3
 696:	53 3c       	mov.l	@(48,r3),r3
 698:	60 23       	mov	r2,r0
 69a:	02 3c       	mov.b	@(r0,r3),r2
 69c:	21 20       	mov.b	r2,@r1
    for (int j = 0; j <= i; ++j) {
 69e:	61 e3       	mov	r14,r1
 6a0:	71 dc       	add	#-36,r1
 6a2:	62 e3       	mov	r14,r2
 6a4:	72 dc       	add	#-36,r2
 6a6:	52 2e       	mov.l	@(56,r2),r2
 6a8:	72 01       	add	#1,r2
 6aa:	11 2e       	mov.l	r2,@(56,r1)
 6ac:	62 e3       	mov	r14,r2
 6ae:	72 dc       	add	#-36,r2
 6b0:	61 e3       	mov	r14,r1
 6b2:	71 dc       	add	#-36,r1
 6b4:	52 2e       	mov.l	@(56,r2),r2
 6b6:	51 1f       	mov.l	@(60,r1),r1
 6b8:	32 17       	cmp/gt	r1,r2
 6ba:	8b dc       	bf	676 <_try_int2s+0x16e>
    }
    output[i + 1] = 0;
 6bc:	61 e3       	mov	r14,r1
 6be:	71 dc       	add	#-36,r1
 6c0:	51 1f       	mov.l	@(60,r1),r1
 6c2:	71 01       	add	#1,r1
 6c4:	62 e3       	mov	r14,r2
 6c6:	72 dc       	add	#-36,r2
 6c8:	52 2a       	mov.l	@(40,r2),r2
 6ca:	31 2c       	add	r2,r1
 6cc:	e2 00       	mov	#0,r2
 6ce:	21 20       	mov.b	r2,@r1
    return true;
 6d0:	e1 01       	mov	#1,r1
 6d2:	6f 43       	mov	r4,r15
}
 6d4:	60 13       	mov	r1,r0
 6d6:	7e 1c       	add	#28,r14
 6d8:	6f e3       	mov	r14,r15
 6da:	6e f6       	mov.l	@r15+,r14
 6dc:	6b f6       	mov.l	@r15+,r11
 6de:	6a f6       	mov.l	@r15+,r10
 6e0:	69 f6       	mov.l	@r15+,r9
 6e2:	68 f6       	mov.l	@r15+,r8
 6e4:	00 0b       	rts	
 6e6:	00 09       	nop	
 6e8:	cc cc       	tst.b	#204,@(r0,gbr)
 6ea:	cc cd       	tst.b	#205,@(r0,gbr)

000006ec <_print_int>:

#define print_int_buf_len 32

void print_int(unsigned int num)
{
 6ec:	2f e6       	mov.l	r14,@-r15
 6ee:	4f 22       	sts.l	pr,@-r15
 6f0:	7f dc       	add	#-36,r15
 6f2:	6e f3       	mov	r15,r14
 6f4:	61 e3       	mov	r14,r1
 6f6:	71 e4       	add	#-28,r1
 6f8:	11 47       	mov.l	r4,@(28,r1)
    char buffer[print_int_buf_len] = { 0 };
 6fa:	61 e3       	mov	r14,r1
 6fc:	71 04       	add	#4,r1
 6fe:	e2 00       	mov	#0,r2
 700:	21 22       	mov.l	r2,@r1
 702:	e2 00       	mov	#0,r2
 704:	11 21       	mov.l	r2,@(4,r1)
 706:	e2 00       	mov	#0,r2
 708:	11 22       	mov.l	r2,@(8,r1)
 70a:	e2 00       	mov	#0,r2
 70c:	11 23       	mov.l	r2,@(12,r1)
 70e:	e2 00       	mov	#0,r2
 710:	11 24       	mov.l	r2,@(16,r1)
 712:	e2 00       	mov	#0,r2
 714:	11 25       	mov.l	r2,@(20,r1)
 716:	e2 00       	mov	#0,r2
 718:	11 26       	mov.l	r2,@(24,r1)
 71a:	e2 00       	mov	#0,r2
 71c:	11 27       	mov.l	r2,@(28,r1)
    if (try_int2s(num, buffer, print_int_buf_len)) {
 71e:	62 e3       	mov	r14,r2
 720:	72 04       	add	#4,r2
 722:	61 e3       	mov	r14,r1
 724:	71 e4       	add	#-28,r1
 726:	e6 20       	mov	#32,r6
 728:	65 23       	mov	r2,r5
 72a:	54 17       	mov.l	@(28,r1),r4
 72c:	d1 09       	mov.l	754 <_print_int+0x68>,r1	! 508 <_try_int2s>
 72e:	41 0b       	jsr	@r1
 730:	00 09       	nop	
 732:	61 03       	mov	r0,r1
 734:	21 18       	tst	r1,r1
 736:	89 05       	bt	744 <_print_int+0x58>
        puts(buffer);
 738:	61 e3       	mov	r14,r1
 73a:	71 04       	add	#4,r1
 73c:	64 13       	mov	r1,r4
 73e:	d1 06       	mov.l	758 <_print_int+0x6c>,r1	! 4ac <_puts>
 740:	41 0b       	jsr	@r1
 742:	00 09       	nop	
    }
}
 744:	00 09       	nop	
 746:	7e 24       	add	#36,r14
 748:	6f e3       	mov	r14,r15
 74a:	4f 26       	lds.l	@r15+,pr
 74c:	6e f6       	mov.l	@r15+,r14
 74e:	00 0b       	rts	
 750:	00 09       	nop	
 752:	00 09       	nop	
 754:	00 00       	.word 0x0000
 756:	05 08       	.word 0x0508
 758:	00 00       	.word 0x0000
 75a:	04 ac       	mov.b	@(r0,r10),r4

0000075c <_print_int_ln>:

void print_int_ln(unsigned int num)
{
 75c:	2f e6       	mov.l	r14,@-r15
 75e:	4f 22       	sts.l	pr,@-r15
 760:	7f fc       	add	#-4,r15
 762:	6e f3       	mov	r15,r14
 764:	61 e3       	mov	r14,r1
 766:	71 c4       	add	#-60,r1
 768:	11 4f       	mov.l	r4,@(60,r1)
    print_int(num);
 76a:	61 e3       	mov	r14,r1
 76c:	71 c4       	add	#-60,r1
 76e:	54 1f       	mov.l	@(60,r1),r4
 770:	d1 06       	mov.l	78c <_print_int_ln+0x30>,r1	! 6ec <_print_int>
 772:	41 0b       	jsr	@r1
 774:	00 09       	nop	
    putchar('\n');
 776:	e4 0a       	mov	#10,r4
 778:	d1 05       	mov.l	790 <_print_int_ln+0x34>,r1	! 474 <_putchar>
 77a:	41 0b       	jsr	@r1
 77c:	00 09       	nop	
}
 77e:	00 09       	nop	
 780:	7e 04       	add	#4,r14
 782:	6f e3       	mov	r14,r15
 784:	4f 26       	lds.l	@r15+,pr
 786:	6e f6       	mov.l	@r15+,r14
 788:	00 0b       	rts	
 78a:	00 09       	nop	
 78c:	00 00       	.word 0x0000
 78e:	06 ec       	mov.b	@(r0,r14),r6
 790:	00 00       	.word 0x0000
 792:	04 74       	mov.b	r7,@(r0,r4)

00000794 <_factorial_rec>:

unsigned int factorial_rec(unsigned int n)
{
 794:	2f e6       	mov.l	r14,@-r15
 796:	4f 22       	sts.l	pr,@-r15
 798:	7f fc       	add	#-4,r15
 79a:	6e f3       	mov	r15,r14
 79c:	61 e3       	mov	r14,r1
 79e:	71 c4       	add	#-60,r1
 7a0:	11 4f       	mov.l	r4,@(60,r1)
    if (n == 0) {
 7a2:	61 e3       	mov	r14,r1
 7a4:	71 c4       	add	#-60,r1
 7a6:	51 1f       	mov.l	@(60,r1),r1
 7a8:	21 18       	tst	r1,r1
 7aa:	8b 02       	bf	7b2 <_factorial_rec+0x1e>
        return 1;
 7ac:	e1 01       	mov	#1,r1
 7ae:	a0 0e       	bra	7ce <_factorial_rec+0x3a>
 7b0:	00 09       	nop	
    }
    return n * factorial_rec(n - 1);
 7b2:	61 e3       	mov	r14,r1
 7b4:	71 c4       	add	#-60,r1
 7b6:	51 1f       	mov.l	@(60,r1),r1
 7b8:	71 ff       	add	#-1,r1
 7ba:	64 13       	mov	r1,r4
 7bc:	d1 07       	mov.l	7dc <_factorial_rec+0x48>,r1	! 794 <_factorial_rec>
 7be:	41 0b       	jsr	@r1
 7c0:	00 09       	nop	
 7c2:	61 03       	mov	r0,r1
 7c4:	62 e3       	mov	r14,r2
 7c6:	72 c4       	add	#-60,r2
 7c8:	52 2f       	mov.l	@(60,r2),r2
 7ca:	01 27       	mul.l	r2,r1
 7cc:	01 1a       	sts	macl,r1
}
 7ce:	60 13       	mov	r1,r0
 7d0:	7e 04       	add	#4,r14
 7d2:	6f e3       	mov	r14,r15
 7d4:	4f 26       	lds.l	@r15+,pr
 7d6:	6e f6       	mov.l	@r15+,r14
 7d8:	00 0b       	rts	
 7da:	00 09       	nop	
 7dc:	00 00       	.word 0x0000
 7de:	07 94       	mov.b	r9,@(r0,r7)

000007e0 <_fib_rec>:

unsigned int fib_rec(unsigned int n)
{
 7e0:	2f 86       	mov.l	r8,@-r15
 7e2:	2f e6       	mov.l	r14,@-r15
 7e4:	4f 22       	sts.l	pr,@-r15
 7e6:	7f fc       	add	#-4,r15
 7e8:	6e f3       	mov	r15,r14
 7ea:	61 e3       	mov	r14,r1
 7ec:	71 c4       	add	#-60,r1
 7ee:	11 4f       	mov.l	r4,@(60,r1)
    if (n == 0 || n == 1) {
 7f0:	61 e3       	mov	r14,r1
 7f2:	71 c4       	add	#-60,r1
 7f4:	51 1f       	mov.l	@(60,r1),r1
 7f6:	21 18       	tst	r1,r1
 7f8:	89 05       	bt	806 <_fib_rec+0x26>
 7fa:	61 e3       	mov	r14,r1
 7fc:	71 c4       	add	#-60,r1
 7fe:	52 1f       	mov.l	@(60,r1),r2
 800:	e1 01       	mov	#1,r1
 802:	32 10       	cmp/eq	r1,r2
 804:	8b 04       	bf	810 <_fib_rec+0x30>
        return n;
 806:	61 e3       	mov	r14,r1
 808:	71 c4       	add	#-60,r1
 80a:	51 1f       	mov.l	@(60,r1),r1
 80c:	a0 13       	bra	836 <_fib_rec+0x56>
 80e:	00 09       	nop	
    }
    return fib_rec(n - 1) + fib_rec(n - 2);
 810:	61 e3       	mov	r14,r1
 812:	71 c4       	add	#-60,r1
 814:	51 1f       	mov.l	@(60,r1),r1
 816:	71 ff       	add	#-1,r1
 818:	64 13       	mov	r1,r4
 81a:	d1 0b       	mov.l	848 <_fib_rec+0x68>,r1	! 7e0 <_fib_rec>
 81c:	41 0b       	jsr	@r1
 81e:	00 09       	nop	
 820:	68 03       	mov	r0,r8
 822:	61 e3       	mov	r14,r1
 824:	71 c4       	add	#-60,r1
 826:	51 1f       	mov.l	@(60,r1),r1
 828:	71 fe       	add	#-2,r1
 82a:	64 13       	mov	r1,r4
 82c:	d1 06       	mov.l	848 <_fib_rec+0x68>,r1	! 7e0 <_fib_rec>
 82e:	41 0b       	jsr	@r1
 830:	00 09       	nop	
 832:	61 03       	mov	r0,r1
 834:	31 8c       	add	r8,r1
}
 836:	60 13       	mov	r1,r0
 838:	7e 04       	add	#4,r14
 83a:	6f e3       	mov	r14,r15
 83c:	4f 26       	lds.l	@r15+,pr
 83e:	6e f6       	mov.l	@r15+,r14
 840:	68 f6       	mov.l	@r15+,r8
 842:	00 0b       	rts	
 844:	00 09       	nop	
 846:	00 09       	nop	
 848:	00 00       	.word 0x0000
 84a:	07 e0       	.word 0x07e0

0000084c <_fib_loop>:

unsigned int fib_loop(unsigned int n)
{
 84c:	2f e6       	mov.l	r14,@-r15
 84e:	7f ec       	add	#-20,r15
 850:	6e f3       	mov	r15,r14
 852:	61 e3       	mov	r14,r1
 854:	71 d4       	add	#-44,r1
 856:	11 4b       	mov.l	r4,@(44,r1)
    if (n == 0 || n == 1) {
 858:	61 e3       	mov	r14,r1
 85a:	71 d4       	add	#-44,r1
 85c:	51 1b       	mov.l	@(44,r1),r1
 85e:	21 18       	tst	r1,r1
 860:	89 05       	bt	86e <_fib_loop+0x22>
 862:	61 e3       	mov	r14,r1
 864:	71 d4       	add	#-44,r1
 866:	52 1b       	mov.l	@(44,r1),r2
 868:	e1 01       	mov	#1,r1
 86a:	32 10       	cmp/eq	r1,r2
 86c:	8b 04       	bf	878 <_fib_loop+0x2c>
        return n;
 86e:	61 e3       	mov	r14,r1
 870:	71 d4       	add	#-44,r1
 872:	51 1b       	mov.l	@(44,r1),r1
 874:	a0 36       	bra	8e4 <_fib_loop+0x98>
 876:	00 09       	nop	
    }
    unsigned int prev = 0;
 878:	61 e3       	mov	r14,r1
 87a:	71 d4       	add	#-44,r1
 87c:	e2 00       	mov	#0,r2
 87e:	11 2f       	mov.l	r2,@(60,r1)
    unsigned int next = 1;
 880:	61 e3       	mov	r14,r1
 882:	71 d4       	add	#-44,r1
 884:	e2 01       	mov	#1,r2
 886:	11 2e       	mov.l	r2,@(56,r1)
    for (int i = 2; i <= n; ++i) {
 888:	61 e3       	mov	r14,r1
 88a:	71 d4       	add	#-44,r1
 88c:	e2 02       	mov	#2,r2
 88e:	11 2d       	mov.l	r2,@(52,r1)
 890:	a0 1d       	bra	8ce <_fib_loop+0x82>
 892:	00 09       	nop	
        unsigned int temp = next;
 894:	61 e3       	mov	r14,r1
 896:	71 d4       	add	#-44,r1
 898:	62 e3       	mov	r14,r2
 89a:	72 d4       	add	#-44,r2
 89c:	52 2e       	mov.l	@(56,r2),r2
 89e:	11 2c       	mov.l	r2,@(48,r1)
        next = next + prev;
 8a0:	61 e3       	mov	r14,r1
 8a2:	71 d4       	add	#-44,r1
 8a4:	63 e3       	mov	r14,r3
 8a6:	73 d4       	add	#-44,r3
 8a8:	62 e3       	mov	r14,r2
 8aa:	72 d4       	add	#-44,r2
 8ac:	53 3e       	mov.l	@(56,r3),r3
 8ae:	52 2f       	mov.l	@(60,r2),r2
 8b0:	32 3c       	add	r3,r2
 8b2:	11 2e       	mov.l	r2,@(56,r1)
        prev = temp;
 8b4:	61 e3       	mov	r14,r1
 8b6:	71 d4       	add	#-44,r1
 8b8:	62 e3       	mov	r14,r2
 8ba:	72 d4       	add	#-44,r2
 8bc:	52 2c       	mov.l	@(48,r2),r2
 8be:	11 2f       	mov.l	r2,@(60,r1)
    for (int i = 2; i <= n; ++i) {
 8c0:	61 e3       	mov	r14,r1
 8c2:	71 d4       	add	#-44,r1
 8c4:	62 e3       	mov	r14,r2
 8c6:	72 d4       	add	#-44,r2
 8c8:	52 2d       	mov.l	@(52,r2),r2
 8ca:	72 01       	add	#1,r2
 8cc:	11 2d       	mov.l	r2,@(52,r1)
 8ce:	61 e3       	mov	r14,r1
 8d0:	71 d4       	add	#-44,r1
 8d2:	51 1d       	mov.l	@(52,r1),r1
 8d4:	62 e3       	mov	r14,r2
 8d6:	72 d4       	add	#-44,r2
 8d8:	52 2b       	mov.l	@(44,r2),r2
 8da:	32 12       	cmp/hs	r1,r2
 8dc:	89 da       	bt	894 <_fib_loop+0x48>
    }
    return next;
 8de:	61 e3       	mov	r14,r1
 8e0:	71 d4       	add	#-44,r1
 8e2:	51 1e       	mov.l	@(56,r1),r1
}
 8e4:	60 13       	mov	r1,r0
 8e6:	7e 14       	add	#20,r14
 8e8:	6f e3       	mov	r14,r15
 8ea:	6e f6       	mov.l	@r15+,r14
 8ec:	00 0b       	rts	
 8ee:	00 09       	nop	

000008f0 <_print_mat>:
#define MAT_DIM 32

typedef int matrix[MAT_DIM][MAT_DIM];

void print_mat(matrix *m)
{
 8f0:	2f e6       	mov.l	r14,@-r15
 8f2:	4f 22       	sts.l	pr,@-r15
 8f4:	7f f4       	add	#-12,r15
 8f6:	6e f3       	mov	r15,r14
 8f8:	61 e3       	mov	r14,r1
 8fa:	71 cc       	add	#-52,r1
 8fc:	11 4d       	mov.l	r4,@(52,r1)
    for (int i = 0; i < MAT_DIM; ++i) {
 8fe:	61 e3       	mov	r14,r1
 900:	71 cc       	add	#-52,r1
 902:	e2 00       	mov	#0,r2
 904:	11 2f       	mov.l	r2,@(60,r1)
 906:	a0 39       	bra	97c <_print_mat+0x8c>
 908:	00 09       	nop	
        for (int j = 0; j < MAT_DIM; ++j) {
 90a:	61 e3       	mov	r14,r1
 90c:	71 cc       	add	#-52,r1
 90e:	e2 00       	mov	#0,r2
 910:	11 2e       	mov.l	r2,@(56,r1)
 912:	a0 21       	bra	958 <_print_mat+0x68>
 914:	00 09       	nop	
            print_int((*m)[i][j]);
 916:	61 e3       	mov	r14,r1
 918:	71 cc       	add	#-52,r1
 91a:	52 1d       	mov.l	@(52,r1),r2
 91c:	61 e3       	mov	r14,r1
 91e:	71 cc       	add	#-52,r1
 920:	51 1f       	mov.l	@(60,r1),r1
 922:	63 13       	mov	r1,r3
 924:	43 08       	shll2	r3
 926:	33 3c       	add	r3,r3
 928:	43 08       	shll2	r3
 92a:	61 e3       	mov	r14,r1
 92c:	71 cc       	add	#-52,r1
 92e:	51 1e       	mov.l	@(56,r1),r1
 930:	31 3c       	add	r3,r1
 932:	41 08       	shll2	r1
 934:	31 2c       	add	r2,r1
 936:	61 12       	mov.l	@r1,r1
 938:	64 13       	mov	r1,r4
 93a:	d1 17       	mov.l	998 <_print_mat+0xa8>,r1	! 6ec <_print_int>
 93c:	41 0b       	jsr	@r1
 93e:	00 09       	nop	
            puts(" ");
 940:	d1 16       	mov.l	99c <_print_mat+0xac>,r1	! e04
 942:	64 13       	mov	r1,r4
 944:	d1 16       	mov.l	9a0 <_print_mat+0xb0>,r1	! 4ac <_puts>
 946:	41 0b       	jsr	@r1
 948:	00 09       	nop	
        for (int j = 0; j < MAT_DIM; ++j) {
 94a:	61 e3       	mov	r14,r1
 94c:	71 cc       	add	#-52,r1
 94e:	62 e3       	mov	r14,r2
 950:	72 cc       	add	#-52,r2
 952:	52 2e       	mov.l	@(56,r2),r2
 954:	72 01       	add	#1,r2
 956:	11 2e       	mov.l	r2,@(56,r1)
 958:	61 e3       	mov	r14,r1
 95a:	71 cc       	add	#-52,r1
 95c:	52 1e       	mov.l	@(56,r1),r2
 95e:	e1 1f       	mov	#31,r1
 960:	32 17       	cmp/gt	r1,r2
 962:	8b d8       	bf	916 <_print_mat+0x26>
        }
        puts("\n");
 964:	d1 0f       	mov.l	9a4 <_print_mat+0xb4>,r1	! e08
 966:	64 13       	mov	r1,r4
 968:	d1 0d       	mov.l	9a0 <_print_mat+0xb0>,r1	! 4ac <_puts>
 96a:	41 0b       	jsr	@r1
 96c:	00 09       	nop	
    for (int i = 0; i < MAT_DIM; ++i) {
 96e:	61 e3       	mov	r14,r1
 970:	71 cc       	add	#-52,r1
 972:	62 e3       	mov	r14,r2
 974:	72 cc       	add	#-52,r2
 976:	52 2f       	mov.l	@(60,r2),r2
 978:	72 01       	add	#1,r2
 97a:	11 2f       	mov.l	r2,@(60,r1)
 97c:	61 e3       	mov	r14,r1
 97e:	71 cc       	add	#-52,r1
 980:	52 1f       	mov.l	@(60,r1),r2
 982:	e1 1f       	mov	#31,r1
 984:	32 17       	cmp/gt	r1,r2
 986:	8b c0       	bf	90a <_print_mat+0x1a>
    }
}
 988:	00 09       	nop	
 98a:	00 09       	nop	
 98c:	7e 0c       	add	#12,r14
 98e:	6f e3       	mov	r14,r15
 990:	4f 26       	lds.l	@r15+,pr
 992:	6e f6       	mov.l	@r15+,r14
 994:	00 0b       	rts	
 996:	00 09       	nop	
 998:	00 00       	.word 0x0000
 99a:	06 ec       	mov.b	@(r0,r14),r6
 99c:	00 00       	.word 0x0000
 99e:	0e 04       	mov.b	r0,@(r0,r14)
 9a0:	00 00       	.word 0x0000
 9a2:	04 ac       	mov.b	@(r0,r10),r4
 9a4:	00 00       	.word 0x0000
 9a6:	0e 08       	.word 0x0e08

000009a8 <_get_id_mat>:

void get_id_mat(matrix *m)
{
 9a8:	2f e6       	mov.l	r14,@-r15
 9aa:	7f f4       	add	#-12,r15
 9ac:	6e f3       	mov	r15,r14
 9ae:	61 e3       	mov	r14,r1
 9b0:	71 cc       	add	#-52,r1
 9b2:	11 4d       	mov.l	r4,@(52,r1)

    for (int i = 0; i < MAT_DIM; ++i) {
 9b4:	61 e3       	mov	r14,r1
 9b6:	71 cc       	add	#-52,r1
 9b8:	e2 00       	mov	#0,r2
 9ba:	11 2f       	mov.l	r2,@(60,r1)
 9bc:	a0 35       	bra	a2a <_get_id_mat+0x82>
 9be:	00 09       	nop	
        for (int j = 0; j < MAT_DIM; ++j) {
 9c0:	61 e3       	mov	r14,r1
 9c2:	71 cc       	add	#-52,r1
 9c4:	e2 00       	mov	#0,r2
 9c6:	11 2e       	mov.l	r2,@(56,r1)
 9c8:	a0 22       	bra	a10 <_get_id_mat+0x68>
 9ca:	00 09       	nop	
            (*m)[i][j] = (i == j ? 1 : 0);
 9cc:	62 e3       	mov	r14,r2
 9ce:	72 cc       	add	#-52,r2
 9d0:	61 e3       	mov	r14,r1
 9d2:	71 cc       	add	#-52,r1
 9d4:	52 2f       	mov.l	@(60,r2),r2
 9d6:	51 1e       	mov.l	@(56,r1),r1
 9d8:	32 10       	cmp/eq	r1,r2
 9da:	01 29       	movt	r1
 9dc:	61 1c       	extu.b	r1,r1
 9de:	67 13       	mov	r1,r7
 9e0:	61 e3       	mov	r14,r1
 9e2:	71 cc       	add	#-52,r1
 9e4:	52 1d       	mov.l	@(52,r1),r2
 9e6:	61 e3       	mov	r14,r1
 9e8:	71 cc       	add	#-52,r1
 9ea:	51 1f       	mov.l	@(60,r1),r1
 9ec:	63 13       	mov	r1,r3
 9ee:	43 08       	shll2	r3
 9f0:	33 3c       	add	r3,r3
 9f2:	43 08       	shll2	r3
 9f4:	61 e3       	mov	r14,r1
 9f6:	71 cc       	add	#-52,r1
 9f8:	51 1e       	mov.l	@(56,r1),r1
 9fa:	31 3c       	add	r3,r1
 9fc:	41 08       	shll2	r1
 9fe:	31 2c       	add	r2,r1
 a00:	21 72       	mov.l	r7,@r1
        for (int j = 0; j < MAT_DIM; ++j) {
 a02:	61 e3       	mov	r14,r1
 a04:	71 cc       	add	#-52,r1
 a06:	62 e3       	mov	r14,r2
 a08:	72 cc       	add	#-52,r2
 a0a:	52 2e       	mov.l	@(56,r2),r2
 a0c:	72 01       	add	#1,r2
 a0e:	11 2e       	mov.l	r2,@(56,r1)
 a10:	61 e3       	mov	r14,r1
 a12:	71 cc       	add	#-52,r1
 a14:	52 1e       	mov.l	@(56,r1),r2
 a16:	e1 1f       	mov	#31,r1
 a18:	32 17       	cmp/gt	r1,r2
 a1a:	8b d7       	bf	9cc <_get_id_mat+0x24>
    for (int i = 0; i < MAT_DIM; ++i) {
 a1c:	61 e3       	mov	r14,r1
 a1e:	71 cc       	add	#-52,r1
 a20:	62 e3       	mov	r14,r2
 a22:	72 cc       	add	#-52,r2
 a24:	52 2f       	mov.l	@(60,r2),r2
 a26:	72 01       	add	#1,r2
 a28:	11 2f       	mov.l	r2,@(60,r1)
 a2a:	61 e3       	mov	r14,r1
 a2c:	71 cc       	add	#-52,r1
 a2e:	52 1f       	mov.l	@(60,r1),r2
 a30:	e1 1f       	mov	#31,r1
 a32:	32 17       	cmp/gt	r1,r2
 a34:	8b c4       	bf	9c0 <_get_id_mat+0x18>
        }
    }
}
 a36:	00 09       	nop	
 a38:	00 09       	nop	
 a3a:	7e 0c       	add	#12,r14
 a3c:	6f e3       	mov	r14,r15
 a3e:	6e f6       	mov.l	@r15+,r14
 a40:	00 0b       	rts	
 a42:	00 09       	nop	

00000a44 <_get_default_mat>:

void get_default_mat(matrix *m)
{
 a44:	2f e6       	mov.l	r14,@-r15
 a46:	7f f4       	add	#-12,r15
 a48:	6e f3       	mov	r15,r14
 a4a:	61 e3       	mov	r14,r1
 a4c:	71 cc       	add	#-52,r1
 a4e:	11 4d       	mov.l	r4,@(52,r1)
    for (int i = 0; i < MAT_DIM; ++i) {
 a50:	61 e3       	mov	r14,r1
 a52:	71 cc       	add	#-52,r1
 a54:	e2 00       	mov	#0,r2
 a56:	11 2f       	mov.l	r2,@(60,r1)
 a58:	a0 32       	bra	ac0 <_get_default_mat+0x7c>
 a5a:	00 09       	nop	
        for (int j = 0; j < MAT_DIM; ++j) {
 a5c:	61 e3       	mov	r14,r1
 a5e:	71 cc       	add	#-52,r1
 a60:	e2 00       	mov	#0,r2
 a62:	11 2e       	mov.l	r2,@(56,r1)
 a64:	a0 1f       	bra	aa6 <_get_default_mat+0x62>
 a66:	00 09       	nop	
            (*m)[i][j] = i + j;
 a68:	62 e3       	mov	r14,r2
 a6a:	72 cc       	add	#-52,r2
 a6c:	61 e3       	mov	r14,r1
 a6e:	71 cc       	add	#-52,r1
 a70:	52 2f       	mov.l	@(60,r2),r2
 a72:	51 1e       	mov.l	@(56,r1),r1
 a74:	32 1c       	add	r1,r2
 a76:	61 e3       	mov	r14,r1
 a78:	71 cc       	add	#-52,r1
 a7a:	53 1d       	mov.l	@(52,r1),r3
 a7c:	61 e3       	mov	r14,r1
 a7e:	71 cc       	add	#-52,r1
 a80:	51 1f       	mov.l	@(60,r1),r1
 a82:	67 13       	mov	r1,r7
 a84:	47 08       	shll2	r7
 a86:	37 7c       	add	r7,r7
 a88:	47 08       	shll2	r7
 a8a:	61 e3       	mov	r14,r1
 a8c:	71 cc       	add	#-52,r1
 a8e:	51 1e       	mov.l	@(56,r1),r1
 a90:	31 7c       	add	r7,r1
 a92:	41 08       	shll2	r1
 a94:	31 3c       	add	r3,r1
 a96:	21 22       	mov.l	r2,@r1
        for (int j = 0; j < MAT_DIM; ++j) {
 a98:	61 e3       	mov	r14,r1
 a9a:	71 cc       	add	#-52,r1
 a9c:	62 e3       	mov	r14,r2
 a9e:	72 cc       	add	#-52,r2
 aa0:	52 2e       	mov.l	@(56,r2),r2
 aa2:	72 01       	add	#1,r2
 aa4:	11 2e       	mov.l	r2,@(56,r1)
 aa6:	61 e3       	mov	r14,r1
 aa8:	71 cc       	add	#-52,r1
 aaa:	52 1e       	mov.l	@(56,r1),r2
 aac:	e1 1f       	mov	#31,r1
 aae:	32 17       	cmp/gt	r1,r2
 ab0:	8b da       	bf	a68 <_get_default_mat+0x24>
    for (int i = 0; i < MAT_DIM; ++i) {
 ab2:	61 e3       	mov	r14,r1
 ab4:	71 cc       	add	#-52,r1
 ab6:	62 e3       	mov	r14,r2
 ab8:	72 cc       	add	#-52,r2
 aba:	52 2f       	mov.l	@(60,r2),r2
 abc:	72 01       	add	#1,r2
 abe:	11 2f       	mov.l	r2,@(60,r1)
 ac0:	61 e3       	mov	r14,r1
 ac2:	71 cc       	add	#-52,r1
 ac4:	52 1f       	mov.l	@(60,r1),r2
 ac6:	e1 1f       	mov	#31,r1
 ac8:	32 17       	cmp/gt	r1,r2
 aca:	8b c7       	bf	a5c <_get_default_mat+0x18>
        }
    }
}
 acc:	00 09       	nop	
 ace:	00 09       	nop	
 ad0:	7e 0c       	add	#12,r14
 ad2:	6f e3       	mov	r14,r15
 ad4:	6e f6       	mov.l	@r15+,r14
 ad6:	00 0b       	rts	
 ad8:	00 09       	nop	

00000ada <_mat_mul>:

void mat_mul(matrix *a, matrix *b, matrix *res)
{
 ada:	2f e6       	mov.l	r14,@-r15
 adc:	7f e8       	add	#-24,r15
 ade:	6e f3       	mov	r15,r14
 ae0:	61 e3       	mov	r14,r1
 ae2:	71 d8       	add	#-40,r1
 ae4:	11 4c       	mov.l	r4,@(48,r1)
 ae6:	61 e3       	mov	r14,r1
 ae8:	71 d8       	add	#-40,r1
 aea:	11 5b       	mov.l	r5,@(44,r1)
 aec:	61 e3       	mov	r14,r1
 aee:	71 d8       	add	#-40,r1
 af0:	11 6a       	mov.l	r6,@(40,r1)
    for (int i = 0; i < MAT_DIM; ++i) {
 af2:	61 e3       	mov	r14,r1
 af4:	71 d8       	add	#-40,r1
 af6:	e2 00       	mov	#0,r2
 af8:	11 2f       	mov.l	r2,@(60,r1)
 afa:	a0 86       	bra	c0a <_mat_mul+0x130>
 afc:	00 09       	nop	
        for (int j = 0; j < MAT_DIM; ++j) {
 afe:	61 e3       	mov	r14,r1
 b00:	71 d8       	add	#-40,r1
 b02:	e2 00       	mov	#0,r2
 b04:	11 2e       	mov.l	r2,@(56,r1)
 b06:	a0 73       	bra	bf0 <_mat_mul+0x116>
 b08:	00 09       	nop	
            (*res)[i][j] = 0;
 b0a:	61 e3       	mov	r14,r1
 b0c:	71 d8       	add	#-40,r1
 b0e:	52 1a       	mov.l	@(40,r1),r2
 b10:	61 e3       	mov	r14,r1
 b12:	71 d8       	add	#-40,r1
 b14:	51 1f       	mov.l	@(60,r1),r1
 b16:	63 13       	mov	r1,r3
 b18:	43 08       	shll2	r3
 b1a:	33 3c       	add	r3,r3
 b1c:	43 08       	shll2	r3
 b1e:	61 e3       	mov	r14,r1
 b20:	71 d8       	add	#-40,r1
 b22:	51 1e       	mov.l	@(56,r1),r1
 b24:	31 3c       	add	r3,r1
 b26:	41 08       	shll2	r1
 b28:	31 2c       	add	r2,r1
 b2a:	e2 00       	mov	#0,r2
 b2c:	21 22       	mov.l	r2,@r1
            for (int k = 0; k < MAT_DIM; ++k) {
 b2e:	61 e3       	mov	r14,r1
 b30:	71 d8       	add	#-40,r1
 b32:	e2 00       	mov	#0,r2
 b34:	11 2d       	mov.l	r2,@(52,r1)
 b36:	a0 4e       	bra	bd6 <_mat_mul+0xfc>
 b38:	00 09       	nop	
                (*res)[i][j] += (*a)[i][k] * (*b)[k][j];
 b3a:	61 e3       	mov	r14,r1
 b3c:	71 d8       	add	#-40,r1
 b3e:	52 1a       	mov.l	@(40,r1),r2
 b40:	61 e3       	mov	r14,r1
 b42:	71 d8       	add	#-40,r1
 b44:	51 1f       	mov.l	@(60,r1),r1
 b46:	63 13       	mov	r1,r3
 b48:	43 08       	shll2	r3
 b4a:	33 3c       	add	r3,r3
 b4c:	43 08       	shll2	r3
 b4e:	61 e3       	mov	r14,r1
 b50:	71 d8       	add	#-40,r1
 b52:	51 1e       	mov.l	@(56,r1),r1
 b54:	31 3c       	add	r3,r1
 b56:	41 08       	shll2	r1
 b58:	31 2c       	add	r2,r1
 b5a:	61 12       	mov.l	@r1,r1
 b5c:	62 e3       	mov	r14,r2
 b5e:	72 d8       	add	#-40,r2
 b60:	53 2c       	mov.l	@(48,r2),r3
 b62:	62 e3       	mov	r14,r2
 b64:	72 d8       	add	#-40,r2
 b66:	52 2f       	mov.l	@(60,r2),r2
 b68:	67 23       	mov	r2,r7
 b6a:	47 08       	shll2	r7
 b6c:	37 7c       	add	r7,r7
 b6e:	47 08       	shll2	r7
 b70:	62 e3       	mov	r14,r2
 b72:	72 d8       	add	#-40,r2
 b74:	52 2d       	mov.l	@(52,r2),r2
 b76:	32 7c       	add	r7,r2
 b78:	42 08       	shll2	r2
 b7a:	32 3c       	add	r3,r2
 b7c:	63 22       	mov.l	@r2,r3
 b7e:	62 e3       	mov	r14,r2
 b80:	72 d8       	add	#-40,r2
 b82:	57 2b       	mov.l	@(44,r2),r7
 b84:	62 e3       	mov	r14,r2
 b86:	72 d8       	add	#-40,r2
 b88:	52 2d       	mov.l	@(52,r2),r2
 b8a:	66 23       	mov	r2,r6
 b8c:	46 08       	shll2	r6
 b8e:	36 6c       	add	r6,r6
 b90:	46 08       	shll2	r6
 b92:	62 e3       	mov	r14,r2
 b94:	72 d8       	add	#-40,r2
 b96:	52 2e       	mov.l	@(56,r2),r2
 b98:	32 6c       	add	r6,r2
 b9a:	42 08       	shll2	r2
 b9c:	32 7c       	add	r7,r2
 b9e:	62 22       	mov.l	@r2,r2
 ba0:	03 27       	mul.l	r2,r3
 ba2:	02 1a       	sts	macl,r2
 ba4:	32 1c       	add	r1,r2
 ba6:	61 e3       	mov	r14,r1
 ba8:	71 d8       	add	#-40,r1
 baa:	53 1a       	mov.l	@(40,r1),r3
 bac:	61 e3       	mov	r14,r1
 bae:	71 d8       	add	#-40,r1
 bb0:	51 1f       	mov.l	@(60,r1),r1
 bb2:	67 13       	mov	r1,r7
 bb4:	47 08       	shll2	r7
 bb6:	37 7c       	add	r7,r7
 bb8:	47 08       	shll2	r7
 bba:	61 e3       	mov	r14,r1
 bbc:	71 d8       	add	#-40,r1
 bbe:	51 1e       	mov.l	@(56,r1),r1
 bc0:	31 7c       	add	r7,r1
 bc2:	41 08       	shll2	r1
 bc4:	31 3c       	add	r3,r1
 bc6:	21 22       	mov.l	r2,@r1
            for (int k = 0; k < MAT_DIM; ++k) {
 bc8:	61 e3       	mov	r14,r1
 bca:	71 d8       	add	#-40,r1
 bcc:	62 e3       	mov	r14,r2
 bce:	72 d8       	add	#-40,r2
 bd0:	52 2d       	mov.l	@(52,r2),r2
 bd2:	72 01       	add	#1,r2
 bd4:	11 2d       	mov.l	r2,@(52,r1)
 bd6:	61 e3       	mov	r14,r1
 bd8:	71 d8       	add	#-40,r1
 bda:	52 1d       	mov.l	@(52,r1),r2
 bdc:	e1 1f       	mov	#31,r1
 bde:	32 17       	cmp/gt	r1,r2
 be0:	8b ab       	bf	b3a <_mat_mul+0x60>
        for (int j = 0; j < MAT_DIM; ++j) {
 be2:	61 e3       	mov	r14,r1
 be4:	71 d8       	add	#-40,r1
 be6:	62 e3       	mov	r14,r2
 be8:	72 d8       	add	#-40,r2
 bea:	52 2e       	mov.l	@(56,r2),r2
 bec:	72 01       	add	#1,r2
 bee:	11 2e       	mov.l	r2,@(56,r1)
 bf0:	61 e3       	mov	r14,r1
 bf2:	71 d8       	add	#-40,r1
 bf4:	52 1e       	mov.l	@(56,r1),r2
 bf6:	e1 1f       	mov	#31,r1
 bf8:	32 17       	cmp/gt	r1,r2
 bfa:	8b 86       	bf	b0a <_mat_mul+0x30>
    for (int i = 0; i < MAT_DIM; ++i) {
 bfc:	61 e3       	mov	r14,r1
 bfe:	71 d8       	add	#-40,r1
 c00:	62 e3       	mov	r14,r2
 c02:	72 d8       	add	#-40,r2
 c04:	52 2f       	mov.l	@(60,r2),r2
 c06:	72 01       	add	#1,r2
 c08:	11 2f       	mov.l	r2,@(60,r1)
 c0a:	61 e3       	mov	r14,r1
 c0c:	71 d8       	add	#-40,r1
 c0e:	52 1f       	mov.l	@(60,r1),r2
 c10:	e1 1f       	mov	#31,r1
 c12:	32 17       	cmp/gt	r1,r2
 c14:	89 01       	bt	c1a <_mat_mul+0x140>
 c16:	af 72       	bra	afe <_mat_mul+0x24>
 c18:	00 09       	nop	
            }
        }
    }
}
 c1a:	00 09       	nop	
 c1c:	00 09       	nop	
 c1e:	7e 18       	add	#24,r14
 c20:	6f e3       	mov	r14,r15
 c22:	6e f6       	mov.l	@r15+,r14
 c24:	00 0b       	rts	
 c26:	00 09       	nop	

00000c28 <_demonstration>:

void demonstration(void)
{
 c28:	2f e6       	mov.l	r14,@-r15
 c2a:	4f 22       	sts.l	pr,@-r15
 c2c:	91 b6       	mov.w	d9c <_demonstration+0x174>,r1	! 300c
 c2e:	3f 18       	sub	r1,r15
 c30:	6e f3       	mov	r15,r14
    puts("Hello world!\n");
 c32:	d1 5c       	mov.l	da4 <_demonstration+0x17c>,r1	! e0c
 c34:	64 13       	mov	r1,r4
 c36:	d1 5c       	mov.l	da8 <_demonstration+0x180>,r1	! 4ac <_puts>
 c38:	41 0b       	jsr	@r1
 c3a:	00 09       	nop	
    print_int_ln(42);
 c3c:	e4 2a       	mov	#42,r4
 c3e:	d1 5b       	mov.l	dac <_demonstration+0x184>,r1	! 75c <_print_int_ln>
 c40:	41 0b       	jsr	@r1
 c42:	00 09       	nop	

    puts("\nFact\n");
 c44:	d1 5a       	mov.l	db0 <_demonstration+0x188>,r1	! e1c
 c46:	64 13       	mov	r1,r4
 c48:	d1 57       	mov.l	da8 <_demonstration+0x180>,r1	! 4ac <_puts>
 c4a:	41 0b       	jsr	@r1
 c4c:	00 09       	nop	
    for (int i = 0; i < 10; ++i) {
 c4e:	91 a6       	mov.w	d9e <_demonstration+0x176>,r1	! 2fcc
 c50:	31 ec       	add	r14,r1
 c52:	e2 00       	mov	#0,r2
 c54:	11 2f       	mov.l	r2,@(60,r1)
 c56:	a0 13       	bra	c80 <_demonstration+0x58>
 c58:	00 09       	nop	
        print_int_ln(factorial_rec(i));
 c5a:	91 a0       	mov.w	d9e <_demonstration+0x176>,r1	! 2fcc
 c5c:	31 ec       	add	r14,r1
 c5e:	51 1f       	mov.l	@(60,r1),r1
 c60:	64 13       	mov	r1,r4
 c62:	d1 54       	mov.l	db4 <_demonstration+0x18c>,r1	! 794 <_factorial_rec>
 c64:	41 0b       	jsr	@r1
 c66:	00 09       	nop	
 c68:	61 03       	mov	r0,r1
 c6a:	64 13       	mov	r1,r4
 c6c:	d1 4f       	mov.l	dac <_demonstration+0x184>,r1	! 75c <_print_int_ln>
 c6e:	41 0b       	jsr	@r1
 c70:	00 09       	nop	
    for (int i = 0; i < 10; ++i) {
 c72:	91 94       	mov.w	d9e <_demonstration+0x176>,r1	! 2fcc
 c74:	31 ec       	add	r14,r1
 c76:	92 92       	mov.w	d9e <_demonstration+0x176>,r2	! 2fcc
 c78:	32 ec       	add	r14,r2
 c7a:	52 2f       	mov.l	@(60,r2),r2
 c7c:	72 01       	add	#1,r2
 c7e:	11 2f       	mov.l	r2,@(60,r1)
 c80:	91 8d       	mov.w	d9e <_demonstration+0x176>,r1	! 2fcc
 c82:	31 ec       	add	r14,r1
 c84:	52 1f       	mov.l	@(60,r1),r2
 c86:	e1 09       	mov	#9,r1
 c88:	32 17       	cmp/gt	r1,r2
 c8a:	8b e6       	bf	c5a <_demonstration+0x32>
    }
    puts("\nFib rec\n");
 c8c:	d1 4a       	mov.l	db8 <_demonstration+0x190>,r1	! e24
 c8e:	64 13       	mov	r1,r4
 c90:	d1 45       	mov.l	da8 <_demonstration+0x180>,r1	! 4ac <_puts>
 c92:	41 0b       	jsr	@r1
 c94:	00 09       	nop	
    for (int i = 0; i < 20; ++i) {
 c96:	91 82       	mov.w	d9e <_demonstration+0x176>,r1	! 2fcc
 c98:	31 ec       	add	r14,r1
 c9a:	e2 00       	mov	#0,r2
 c9c:	11 2e       	mov.l	r2,@(56,r1)
 c9e:	a0 13       	bra	cc8 <_demonstration+0xa0>
 ca0:	00 09       	nop	
        print_int_ln(fib_rec(i));
 ca2:	91 7c       	mov.w	d9e <_demonstration+0x176>,r1	! 2fcc
 ca4:	31 ec       	add	r14,r1
 ca6:	51 1e       	mov.l	@(56,r1),r1
 ca8:	64 13       	mov	r1,r4
 caa:	d1 44       	mov.l	dbc <_demonstration+0x194>,r1	! 7e0 <_fib_rec>
 cac:	41 0b       	jsr	@r1
 cae:	00 09       	nop	
 cb0:	61 03       	mov	r0,r1
 cb2:	64 13       	mov	r1,r4
 cb4:	d1 3d       	mov.l	dac <_demonstration+0x184>,r1	! 75c <_print_int_ln>
 cb6:	41 0b       	jsr	@r1
 cb8:	00 09       	nop	
    for (int i = 0; i < 20; ++i) {
 cba:	91 70       	mov.w	d9e <_demonstration+0x176>,r1	! 2fcc
 cbc:	31 ec       	add	r14,r1
 cbe:	92 6e       	mov.w	d9e <_demonstration+0x176>,r2	! 2fcc
 cc0:	32 ec       	add	r14,r2
 cc2:	52 2e       	mov.l	@(56,r2),r2
 cc4:	72 01       	add	#1,r2
 cc6:	11 2e       	mov.l	r2,@(56,r1)
 cc8:	91 69       	mov.w	d9e <_demonstration+0x176>,r1	! 2fcc
 cca:	31 ec       	add	r14,r1
 ccc:	52 1e       	mov.l	@(56,r1),r2
 cce:	e1 13       	mov	#19,r1
 cd0:	32 17       	cmp/gt	r1,r2
 cd2:	8b e6       	bf	ca2 <_demonstration+0x7a>
    }

    puts("\nFib loop\n");
 cd4:	d1 3a       	mov.l	dc0 <_demonstration+0x198>,r1	! e30
 cd6:	64 13       	mov	r1,r4
 cd8:	d1 33       	mov.l	da8 <_demonstration+0x180>,r1	! 4ac <_puts>
 cda:	41 0b       	jsr	@r1
 cdc:	00 09       	nop	
    for (int i = 0; i < 20; ++i) {
 cde:	91 5e       	mov.w	d9e <_demonstration+0x176>,r1	! 2fcc
 ce0:	31 ec       	add	r14,r1
 ce2:	e2 00       	mov	#0,r2
 ce4:	11 2d       	mov.l	r2,@(52,r1)
 ce6:	a0 13       	bra	d10 <_demonstration+0xe8>
 ce8:	00 09       	nop	
        print_int_ln(fib_loop(i));
 cea:	91 58       	mov.w	d9e <_demonstration+0x176>,r1	! 2fcc
 cec:	31 ec       	add	r14,r1
 cee:	51 1d       	mov.l	@(52,r1),r1
 cf0:	64 13       	mov	r1,r4
 cf2:	d1 34       	mov.l	dc4 <_demonstration+0x19c>,r1	! 84c <_fib_loop>
 cf4:	41 0b       	jsr	@r1
 cf6:	00 09       	nop	
 cf8:	61 03       	mov	r0,r1
 cfa:	64 13       	mov	r1,r4
 cfc:	d1 2b       	mov.l	dac <_demonstration+0x184>,r1	! 75c <_print_int_ln>
 cfe:	41 0b       	jsr	@r1
 d00:	00 09       	nop	
    for (int i = 0; i < 20; ++i) {
 d02:	91 4c       	mov.w	d9e <_demonstration+0x176>,r1	! 2fcc
 d04:	31 ec       	add	r14,r1
 d06:	92 4a       	mov.w	d9e <_demonstration+0x176>,r2	! 2fcc
 d08:	32 ec       	add	r14,r2
 d0a:	52 2d       	mov.l	@(52,r2),r2
 d0c:	72 01       	add	#1,r2
 d0e:	11 2d       	mov.l	r2,@(52,r1)
 d10:	91 45       	mov.w	d9e <_demonstration+0x176>,r1	! 2fcc
 d12:	31 ec       	add	r14,r1
 d14:	52 1d       	mov.l	@(52,r1),r2
 d16:	e1 13       	mov	#19,r1
 d18:	32 17       	cmp/gt	r1,r2
 d1a:	8b e6       	bf	cea <_demonstration+0xc2>
    }

    puts("\nGlobal\n");
 d1c:	d1 2a       	mov.l	dc8 <_demonstration+0x1a0>,r1	! e3c
 d1e:	64 13       	mov	r1,r4
 d20:	d1 21       	mov.l	da8 <_demonstration+0x180>,r1	! 4ac <_puts>
 d22:	41 0b       	jsr	@r1
 d24:	00 09       	nop	
    print_int_ln(global_int);
 d26:	d1 29       	mov.l	dcc <_demonstration+0x1a4>,r1	! e00 <_global_int>
 d28:	61 12       	mov.l	@r1,r1
 d2a:	64 13       	mov	r1,r4
 d2c:	d1 1f       	mov.l	dac <_demonstration+0x184>,r1	! 75c <_print_int_ln>
 d2e:	41 0b       	jsr	@r1
 d30:	00 09       	nop	
    global_int += 1;
 d32:	d1 26       	mov.l	dcc <_demonstration+0x1a4>,r1	! e00 <_global_int>
 d34:	61 12       	mov.l	@r1,r1
 d36:	62 13       	mov	r1,r2
 d38:	72 01       	add	#1,r2
 d3a:	d1 24       	mov.l	dcc <_demonstration+0x1a4>,r1	! e00 <_global_int>
 d3c:	21 22       	mov.l	r2,@r1
    print_int_ln(global_int);
 d3e:	d1 23       	mov.l	dcc <_demonstration+0x1a4>,r1	! e00 <_global_int>
 d40:	61 12       	mov.l	@r1,r1
 d42:	64 13       	mov	r1,r4
 d44:	d1 19       	mov.l	dac <_demonstration+0x184>,r1	! 75c <_print_int_ln>
 d46:	41 0b       	jsr	@r1
 d48:	00 09       	nop	

    puts("\nMatrix\n");
 d4a:	d1 21       	mov.l	dd0 <_demonstration+0x1a8>,r1	! e48
 d4c:	64 13       	mov	r1,r4
 d4e:	d1 16       	mov.l	da8 <_demonstration+0x180>,r1	! 4ac <_puts>
 d50:	41 0b       	jsr	@r1
 d52:	00 09       	nop	
        .
        .
        0     ...   1

    */
    get_id_mat(&m1);
 d54:	91 24       	mov.w	da0 <_demonstration+0x178>,r1	! 2000
 d56:	31 ec       	add	r14,r1
 d58:	64 13       	mov	r1,r4
 d5a:	d1 1e       	mov.l	dd4 <_demonstration+0x1ac>,r1	! 9a8 <_get_id_mat>
 d5c:	41 0b       	jsr	@r1
 d5e:	00 09       	nop	
      .                    .

      MAT_DIM - 1 ...   2 * MAT_DIM - 2

    */
    get_default_mat(&m2);
 d60:	91 1f       	mov.w	da2 <_demonstration+0x17a>,r1	! 1000
 d62:	31 ec       	add	r14,r1
 d64:	64 13       	mov	r1,r4
 d66:	d1 1c       	mov.l	dd8 <_demonstration+0x1b0>,r1	! a44 <_get_default_mat>
 d68:	41 0b       	jsr	@r1
 d6a:	00 09       	nop	

    // m3 = m1 * m2 = m2

    mat_mul(&m1, &m2, &m3);
 d6c:	63 e3       	mov	r14,r3
 d6e:	92 18       	mov.w	da2 <_demonstration+0x17a>,r2	! 1000
 d70:	32 ec       	add	r14,r2
 d72:	91 15       	mov.w	da0 <_demonstration+0x178>,r1	! 2000
 d74:	31 ec       	add	r14,r1
 d76:	66 33       	mov	r3,r6
 d78:	65 23       	mov	r2,r5
 d7a:	64 13       	mov	r1,r4
 d7c:	d1 17       	mov.l	ddc <_demonstration+0x1b4>,r1	! ada <_mat_mul>
 d7e:	41 0b       	jsr	@r1
 d80:	00 09       	nop	

    print_mat(&m3);
 d82:	61 e3       	mov	r14,r1
 d84:	64 13       	mov	r1,r4
 d86:	d1 16       	mov.l	de0 <_demonstration+0x1b8>,r1	! 8f0 <_print_mat>
 d88:	41 0b       	jsr	@r1
 d8a:	00 09       	nop	
}
 d8c:	00 09       	nop	
 d8e:	97 05       	mov.w	d9c <_demonstration+0x174>,r7	! 300c
 d90:	3e 7c       	add	r7,r14
 d92:	6f e3       	mov	r14,r15
 d94:	4f 26       	lds.l	@r15+,pr
 d96:	6e f6       	mov.l	@r15+,r14
 d98:	00 0b       	rts	
 d9a:	00 09       	nop	
 d9c:	30 0c       	add	r0,r0
 d9e:	2f cc       	cmp/str	r12,r15
 da0:	20 00       	mov.b	r0,@r0
 da2:	10 00       	mov.l	r0,@(0,r0)
 da4:	00 00       	.word 0x0000
 da6:	0e 0c       	mov.b	@(r0,r0),r14
 da8:	00 00       	.word 0x0000
 daa:	04 ac       	mov.b	@(r0,r10),r4
 dac:	00 00       	.word 0x0000
 dae:	07 5c       	mov.b	@(r0,r5),r7
 db0:	00 00       	.word 0x0000
 db2:	0e 1c       	mov.b	@(r0,r1),r14
 db4:	00 00       	.word 0x0000
 db6:	07 94       	mov.b	r9,@(r0,r7)
 db8:	00 00       	.word 0x0000
 dba:	0e 24       	mov.b	r2,@(r0,r14)
 dbc:	00 00       	.word 0x0000
 dbe:	07 e0       	.word 0x07e0
 dc0:	00 00       	.word 0x0000
 dc2:	0e 30       	.word 0x0e30
 dc4:	00 00       	.word 0x0000
 dc6:	08 4c       	mov.b	@(r0,r4),r8
 dc8:	00 00       	.word 0x0000
 dca:	0e 3c       	mov.b	@(r0,r3),r14
 dcc:	00 00       	.word 0x0000
 dce:	0e 00       	.word 0x0e00
 dd0:	00 00       	.word 0x0000
 dd2:	0e 48       	.word 0x0e48
 dd4:	00 00       	.word 0x0000
 dd6:	09 a8       	.word 0x09a8
 dd8:	00 00       	.word 0x0000
 dda:	0a 44       	mov.b	r4,@(r0,r10)
 ddc:	00 00       	.word 0x0000
 dde:	0a da       	.word 0x0ada
 de0:	00 00       	.word 0x0000
 de2:	08 f0       	.word 0x08f0

00000de4 <_main>:

void main(void)
{
 de4:	2f e6       	mov.l	r14,@-r15
 de6:	4f 22       	sts.l	pr,@-r15
 de8:	6e f3       	mov	r15,r14
    demonstration();
 dea:	d1 04       	mov.l	dfc <_main+0x18>,r1	! c28 <_demonstration>
 dec:	41 0b       	jsr	@r1
 dee:	00 09       	nop	
}
 df0:	00 09       	nop	
 df2:	6f e3       	mov	r14,r15
 df4:	4f 26       	lds.l	@r15+,pr
 df6:	6e f6       	mov.l	@r15+,r14
 df8:	00 0b       	rts	
 dfa:	00 09       	nop	
 dfc:	00 00       	.word 0x0000
 dfe:	0c 28       	.word 0x0c28

00000e00 <_global_int>:
 e00:	00 00 00 05 20 00 00 00 0a 00 00 00 48 65 6c 6c     .... .......Hell
 e10:	6f 20 77 6f 72 6c 64 21 0a 00 00 00 0a 46 61 63     o world!.....Fac
 e20:	74 0a 00 00 0a 46 69 62 20 72 65 63 0a 00 00 00     t....Fib rec....
 e30:	0a 46 69 62 20 6c 6f 6f 70 0a 00 00 0a 47 6c 6f     .Fib loop....Glo
 e40:	62 61 6c 0a 00 00 00 00 0a 4d 61 74 72 69 78 0a     bal......Matrix.
	...
