
kernel.raw:     file format elf32-tradlittlemips


Disassembly of section .kernel:

80000000 <exception_tlb_refill>:
80000000:	00000037 	0x37
80000004:	00000029 	0x29
	...

80000100 <exception_cache_error>:
80000100:	00000037 	0x37
80000104:	00000029 	0x29
	...

80000180 <exception_general>:
80000180:	00000037 	0x37
80000184:	00000029 	0x29
	...

80000400 <start>:
80000400:	3c1d8000 	lui	sp,0x8000
80000404:	37bd0400 	ori	sp,sp,0x400
80000408:	3c1c8000 	lui	gp,0x8000
8000040c:	341aff01 	li	k0,0xff01
80000410:	409a6000 	mtc0	k0,c0_sr
80000414:	00000000 	nop
80000418:	0c000111 	jal	80000444 <kernel_main>
8000041c:	00000000 	nop
80000420:	00000028 	0x28
80000424:	08000109 	j	80000424 <start+0x24>
80000428:	00000000 	nop
8000042c:	00000000 	nop

80000430 <print_char>:
80000430:	3c028000 	lui	v0,0x8000
80000434:	8c420734 	lw	v0,1844(v0)
80000438:	a0440000 	sb	a0,0(v0)
8000043c:	03e00008 	jr	ra
80000440:	00000000 	nop

80000444 <kernel_main>:
80000444:	3c049000 	lui	a0,0x9000
80000448:	8c830200 	lw	v1,512(a0)
8000044c:	27bdffe8 	addiu	sp,sp,-24
80000450:	3c058000 	lui	a1,0x8000
80000454:	30690007 	andi	t1,v1,0x7
80000458:	000910c0 	sll	v0,t1,0x3
8000045c:	00441021 	addu	v0,v0,a0
80000460:	3c048000 	lui	a0,0x8000
80000464:	ac820734 	sw	v0,1844(a0)
80000468:	24a50700 	addiu	a1,a1,1792
8000046c:	afbf0014 	sw	ra,20(sp)
80000470:	24040052 	li	a0,82
80000474:	0c00010c 	jal	80000430 <print_char>
80000478:	24a50001 	addiu	a1,a1,1
8000047c:	80a40000 	lb	a0,0(a1)
80000480:	1480fffc 	bnez	a0,80000474 <kernel_main+0x30>
80000484:	3c08000d 	lui	t0,0xd
80000488:	25085427 	addiu	t0,t0,21543
8000048c:	00680018 	mult	v1,t0
80000490:	00001012 	mflo	v0
80000494:	3c06805a 	lui	a2,0x805a
80000498:	34c6ce55 	ori	a2,a2,0xce55
8000049c:	3c070155 	lui	a3,0x155
800004a0:	24e704b1 	addiu	a3,a3,1201
800004a4:	3c058000 	lui	a1,0x8000
800004a8:	24a50710 	addiu	a1,a1,1808
800004ac:	00460019 	multu	v0,a2
800004b0:	00001810 	mfhi	v1
800004b4:	00432023 	subu	a0,v0,v1
800004b8:	00042042 	srl	a0,a0,0x1
800004bc:	00641821 	addu	v1,v1,a0
800004c0:	00031e02 	srl	v1,v1,0x18
800004c4:	00670018 	mult	v1,a3
800004c8:	00001812 	mflo	v1
800004cc:	00431823 	subu	v1,v0,v1
800004d0:	24630007 	addiu	v1,v1,7
800004d4:	00031202 	srl	v0,v1,0x8
800004d8:	3042000f 	andi	v0,v0,0xf
800004dc:	00451021 	addu	v0,v0,a1
800004e0:	0c00010c 	jal	80000430 <print_char>
800004e4:	80440000 	lb	a0,0(v0)
800004e8:	00680018 	mult	v1,t0
800004ec:	00001012 	mflo	v0
	...
800004f8:	00460019 	multu	v0,a2
800004fc:	00001810 	mfhi	v1
80000500:	00432023 	subu	a0,v0,v1
80000504:	00042042 	srl	a0,a0,0x1
80000508:	00641821 	addu	v1,v1,a0
8000050c:	00031e02 	srl	v1,v1,0x18
80000510:	00670018 	mult	v1,a3
80000514:	00001812 	mflo	v1
80000518:	00431823 	subu	v1,v0,v1
8000051c:	24630007 	addiu	v1,v1,7
80000520:	00031202 	srl	v0,v1,0x8
80000524:	3042000f 	andi	v0,v0,0xf
80000528:	00451021 	addu	v0,v0,a1
8000052c:	0c00010c 	jal	80000430 <print_char>
80000530:	80440000 	lb	a0,0(v0)
80000534:	00680018 	mult	v1,t0
80000538:	00001012 	mflo	v0
	...
80000544:	00460019 	multu	v0,a2
80000548:	00001810 	mfhi	v1
8000054c:	00432023 	subu	a0,v0,v1
80000550:	00042042 	srl	a0,a0,0x1
80000554:	00641821 	addu	v1,v1,a0
80000558:	00031e02 	srl	v1,v1,0x18
8000055c:	00670018 	mult	v1,a3
80000560:	00001812 	mflo	v1
80000564:	00431823 	subu	v1,v0,v1
80000568:	24630007 	addiu	v1,v1,7
8000056c:	00031202 	srl	v0,v1,0x8
80000570:	3042000f 	andi	v0,v0,0xf
80000574:	00451021 	addu	v0,v0,a1
80000578:	0c00010c 	jal	80000430 <print_char>
8000057c:	80440000 	lb	a0,0(v0)
80000580:	00680018 	mult	v1,t0
80000584:	00001012 	mflo	v0
	...
80000590:	00460019 	multu	v0,a2
80000594:	00001810 	mfhi	v1
80000598:	00432023 	subu	a0,v0,v1
8000059c:	00042042 	srl	a0,a0,0x1
800005a0:	00641821 	addu	v1,v1,a0
800005a4:	00031e02 	srl	v1,v1,0x18
800005a8:	00670018 	mult	v1,a3
800005ac:	00001812 	mflo	v1
800005b0:	00431823 	subu	v1,v0,v1
800005b4:	24630007 	addiu	v1,v1,7
800005b8:	00031202 	srl	v0,v1,0x8
800005bc:	3042000f 	andi	v0,v0,0xf
800005c0:	00451021 	addu	v0,v0,a1
800005c4:	0c00010c 	jal	80000430 <print_char>
800005c8:	80440000 	lb	a0,0(v0)
800005cc:	00680018 	mult	v1,t0
800005d0:	00001012 	mflo	v0
	...
800005dc:	00460019 	multu	v0,a2
800005e0:	00001810 	mfhi	v1
800005e4:	00432023 	subu	a0,v0,v1
800005e8:	00042042 	srl	a0,a0,0x1
800005ec:	00641821 	addu	v1,v1,a0
800005f0:	00031e02 	srl	v1,v1,0x18
800005f4:	00670018 	mult	v1,a3
800005f8:	00001812 	mflo	v1
800005fc:	00431823 	subu	v1,v0,v1
80000600:	24630007 	addiu	v1,v1,7
80000604:	00031202 	srl	v0,v1,0x8
80000608:	3042000f 	andi	v0,v0,0xf
8000060c:	00451021 	addu	v0,v0,a1
80000610:	0c00010c 	jal	80000430 <print_char>
80000614:	80440000 	lb	a0,0(v0)
80000618:	00680018 	mult	v1,t0
8000061c:	00001012 	mflo	v0
	...
80000628:	00460019 	multu	v0,a2
8000062c:	00001810 	mfhi	v1
80000630:	00432023 	subu	a0,v0,v1
80000634:	00042042 	srl	a0,a0,0x1
80000638:	00641821 	addu	v1,v1,a0
8000063c:	00031e02 	srl	v1,v1,0x18
80000640:	00670018 	mult	v1,a3
80000644:	00001812 	mflo	v1
80000648:	00431823 	subu	v1,v0,v1
8000064c:	24630007 	addiu	v1,v1,7
80000650:	00031202 	srl	v0,v1,0x8
80000654:	3042000f 	andi	v0,v0,0xf
80000658:	00451021 	addu	v0,v0,a1
8000065c:	0c00010c 	jal	80000430 <print_char>
80000660:	80440000 	lb	a0,0(v0)
80000664:	0c00010c 	jal	80000430 <print_char>
80000668:	25240031 	addiu	a0,t1,49
8000066c:	00680018 	mult	v1,t0
80000670:	00001012 	mflo	v0
	...
8000067c:	00460019 	multu	v0,a2
80000680:	00003010 	mfhi	a2
80000684:	00461823 	subu	v1,v0,a2
80000688:	00031842 	srl	v1,v1,0x1
8000068c:	00c33021 	addu	a2,a2,v1
80000690:	00063602 	srl	a2,a2,0x18
80000694:	00c70018 	mult	a2,a3
80000698:	00003812 	mflo	a3
8000069c:	00471023 	subu	v0,v0,a3
800006a0:	24420007 	addiu	v0,v0,7
800006a4:	00021202 	srl	v0,v0,0x8
800006a8:	3042000f 	andi	v0,v0,0xf
800006ac:	00451021 	addu	v0,v0,a1
800006b0:	0c00010c 	jal	80000430 <print_char>
800006b4:	80440000 	lb	a0,0(v0)
800006b8:	3c038000 	lui	v1,0x8000
800006bc:	2463070c 	addiu	v1,v1,1804
800006c0:	2404000a 	li	a0,10
800006c4:	0c00010c 	jal	80000430 <print_char>
800006c8:	24630001 	addiu	v1,v1,1
800006cc:	80640000 	lb	a0,0(v1)
800006d0:	1480fffc 	bnez	a0,800006c4 <kernel_main+0x280>
800006d4:	3c058000 	lui	a1,0x8000
800006d8:	2403000a 	li	v1,10
800006dc:	0c00010c 	jal	80000430 <print_char>
800006e0:	2404002e 	li	a0,46
800006e4:	00001025 	move	v0,zero
800006e8:	aca20730 	sw	v0,1840(a1)
800006ec:	24420001 	addiu	v0,v0,1
800006f0:	1443fffd 	bne	v0,v1,800006e8 <kernel_main+0x2a4>
800006f4:	00000000 	nop
800006f8:	1000fff8 	b	800006dc <kernel_main+0x298>
800006fc:	00000000 	nop
80000700:	206e7552 	addi	t6,v1,30034
80000704:	203a6469 	addi	k0,at,25705
80000708:	00000000 	nop
8000070c:	00000a0a 	0xa0a
80000710:	33323130 	andi	s2,t9,0x3130
80000714:	37363534 	ori	s6,t9,0x3534
80000718:	62613938 	daddi	at,s3,14648
8000071c:	66656463 	daddiu	a1,s3,25699
	...

80000730 <blackhole>:
80000730:	00000000                                ....

80000734 <actual_printer>:
	...
