
main.raw:     file format elf32-littleriscv


Disassembly of section .text:

00000000 <setup_table-0xb8>:
   0:	800002b7          	lui	t0,0x80000
   4:	30529073          	csrw	mtvec,t0
   8:	0b0000ef          	jal	ra,b8 <setup_table>
   c:	801002b7          	lui	t0,0x80100
  10:	fd028293          	addi	t0,t0,-48 # 800fffd0 <fail+0x800ffc70>
  14:	18029073          	csrw	satp,t0
  18:	000012b7          	lui	t0,0x1
  1c:	80028293          	addi	t0,t0,-2048 # 800 <fail+0x4a0>
  20:	30029073          	csrw	mstatus,t0
  24:	00000297          	auipc	t0,0x0
  28:	01028293          	addi	t0,t0,16 # 34 <setup_table-0x84>
  2c:	34129073          	csrw	mepc,t0
  30:	30200073          	mret
  34:	00100073          	ebreak
  38:	208000ef          	jal	ra,240 <access_dirty>
  3c:	314000ef          	jal	ra,350 <newline>
  40:	24c000ef          	jal	ra,28c <write_read_only>
  44:	30c000ef          	jal	ra,350 <newline>
  48:	250000ef          	jal	ra,298 <read_execute_only_non_mxr>
  4c:	304000ef          	jal	ra,350 <newline>
  50:	254000ef          	jal	ra,2a4 <read_execute_only_set_mxr>
  54:	2fc000ef          	jal	ra,350 <newline>
  58:	268000ef          	jal	ra,2c0 <read_u_page_not_sum>
  5c:	2f4000ef          	jal	ra,350 <newline>
  60:	274000ef          	jal	ra,2d4 <read_u_page_set_sum>
  64:	2ec000ef          	jal	ra,350 <newline>
  68:	288000ef          	jal	ra,2f0 <execute_from_non_executable>
  6c:	2e4000ef          	jal	ra,350 <newline>
  70:	290000ef          	jal	ra,300 <supervisor_fetch_from_user_page>
  74:	2dc000ef          	jal	ra,350 <newline>
  78:	2a0000ef          	jal	ra,318 <read_from_unaligned_megapage>
  7c:	2d4000ef          	jal	ra,350 <newline>
  80:	2a4000ef          	jal	ra,324 <read_from_invalid_first_level_pte>
  84:	2cc000ef          	jal	ra,350 <newline>
  88:	2a8000ef          	jal	ra,330 <read_from_invalid_second_level_pte>
  8c:	2c4000ef          	jal	ra,350 <newline>
  90:	2ac000ef          	jal	ra,33c <read_from_non_leaf_second_level_pte>
  94:	2bc000ef          	jal	ra,350 <newline>
  98:	2b0000ef          	jal	ra,348 <read_from_non_mapped>
  9c:	2b4000ef          	jal	ra,350 <newline>
  a0:	10000293          	li	t0,256
  a4:	1002b073          	csrc	sstatus,t0
  a8:	100082b7          	lui	t0,0x10008
  ac:	14129073          	csrw	sepc,t0
  b0:	10200073          	sret
  b4:	2ac0006f          	j	360 <fail>

000000b8 <setup_table>:
  b8:	fffd02b7          	lui	t0,0xfffd0
  bc:	00001337          	lui	t1,0x1
  c0:	f0030313          	addi	t1,t1,-256 # f00 <fail+0xba0>
  c4:	006283b3          	add	t2,t0,t1
  c8:	3c000337          	lui	t1,0x3c000
  cc:	00930313          	addi	t1,t1,9 # 3c000009 <fail+0x3bfffca9>
  d0:	0063a023          	sw	t1,0(t2)
  d4:	00001337          	lui	t1,0x1
  d8:	90030313          	addi	t1,t1,-1792 # 900 <fail+0x5a0>
  dc:	006283b3          	add	t2,t0,t1
  e0:	24000337          	lui	t1,0x24000
  e4:	00730313          	addi	t1,t1,7 # 24000007 <fail+0x23fffca7>
  e8:	0063a023          	sw	t1,0(t2)
  ec:	00001337          	lui	t1,0x1
  f0:	a0030313          	addi	t1,t1,-1536 # a00 <fail+0x6a0>
  f4:	006283b3          	add	t2,t0,t1
  f8:	24000337          	lui	t1,0x24000
  fc:	01730313          	addi	t1,t1,23 # 24000017 <fail+0x23fffcb7>
 100:	0063a023          	sw	t1,0(t2)
 104:	00001337          	lui	t1,0x1
 108:	ffc30313          	addi	t1,t1,-4 # ffc <fail+0xc9c>
 10c:	006283b3          	add	t2,t0,t1
 110:	3ff00337          	lui	t1,0x3ff00
 114:	00730313          	addi	t1,t1,7 # 3ff00007 <fail+0x3feffca7>
 118:	0063a023          	sw	t1,0(t2)
 11c:	10000313          	li	t1,256
 120:	006283b3          	add	t2,t0,t1
 124:	3fff8337          	lui	t1,0x3fff8
 128:	00130313          	addi	t1,t1,1 # 3fff8001 <fail+0x3fff7ca1>
 12c:	0063a023          	sw	t1,0(t2)
 130:	fffe02b7          	lui	t0,0xfffe0
 134:	00000313          	li	t1,0
 138:	006283b3          	add	t2,t0,t1
 13c:	04000337          	lui	t1,0x4000
 140:	00f30313          	addi	t1,t1,15 # 400000f <fail+0x3fffcaf>
 144:	0063a023          	sw	t1,0(t2)
 148:	00400313          	li	t1,4
 14c:	006283b3          	add	t2,t0,t1
 150:	04000337          	lui	t1,0x4000
 154:	40330313          	addi	t1,t1,1027 # 4000403 <fail+0x40000a3>
 158:	0063a023          	sw	t1,0(t2)
 15c:	00800313          	li	t1,8
 160:	006283b3          	add	t2,t0,t1
 164:	04001337          	lui	t1,0x4001
 168:	80930313          	addi	t1,t1,-2039 # 4000809 <fail+0x40004a9>
 16c:	0063a023          	sw	t1,0(t2)
 170:	00c00313          	li	t1,12
 174:	006283b3          	add	t2,t0,t1
 178:	04001337          	lui	t1,0x4001
 17c:	c1f30313          	addi	t1,t1,-993 # 4000c1f <fail+0x40008bf>
 180:	0063a023          	sw	t1,0(t2)
 184:	01000313          	li	t1,16
 188:	006283b3          	add	t2,t0,t1
 18c:	04000337          	lui	t1,0x4000
 190:	00330313          	addi	t1,t1,3 # 4000003 <fail+0x3fffca3>
 194:	0063a023          	sw	t1,0(t2)
 198:	01400313          	li	t1,20
 19c:	006283b3          	add	t2,t0,t1
 1a0:	04001337          	lui	t1,0x4001
 1a4:	80930313          	addi	t1,t1,-2039 # 4000809 <fail+0x40004a9>
 1a8:	0063a023          	sw	t1,0(t2)
 1ac:	01800313          	li	t1,24
 1b0:	006283b3          	add	t2,t0,t1
 1b4:	04000337          	lui	t1,0x4000
 1b8:	01930313          	addi	t1,t1,25 # 4000019 <fail+0x3fffcb9>
 1bc:	0063a023          	sw	t1,0(t2)
 1c0:	01c00313          	li	t1,28
 1c4:	006283b3          	add	t2,t0,t1
 1c8:	04001337          	lui	t1,0x4001
 1cc:	80930313          	addi	t1,t1,-2039 # 4000809 <fail+0x40004a9>
 1d0:	0063a023          	sw	t1,0(t2)
 1d4:	02000313          	li	t1,32
 1d8:	006283b3          	add	t2,t0,t1
 1dc:	04002337          	lui	t1,0x4002
 1e0:	01930313          	addi	t1,t1,25 # 4002019 <fail+0x4001cb9>
 1e4:	0063a023          	sw	t1,0(t2)
 1e8:	00001337          	lui	t1,0x1
 1ec:	ffc30313          	addi	t1,t1,-4 # ffc <fail+0xc9c>
 1f0:	006283b3          	add	t2,t0,t1
 1f4:	00e00313          	li	t1,14
 1f8:	0063a023          	sw	t1,0(t2)
 1fc:	00001337          	lui	t1,0x1
 200:	ff830313          	addi	t1,t1,-8 # ff8 <fail+0xc98>
 204:	006283b3          	add	t2,t0,t1
 208:	00100313          	li	t1,1
 20c:	0063a023          	sw	t1,0(t2)
 210:	fffd02b7          	lui	t0,0xfffd0
 214:	20000313          	li	t1,512
 218:	006283b3          	add	t2,t0,t1
 21c:	04000337          	lui	t1,0x4000
 220:	40f30313          	addi	t1,t1,1039 # 400040f <fail+0x40000af>
 224:	0063a023          	sw	t1,0(t2)
 228:	20400313          	li	t1,516
 22c:	006283b3          	add	t2,t0,t1
 230:	04000337          	lui	t1,0x4000
 234:	00e30313          	addi	t1,t1,14 # 400000e <fail+0x3fffcae>
 238:	0063a023          	sw	t1,0(t2)
 23c:	00008067          	ret

00000240 <access_dirty>:
 240:	fffe02b7          	lui	t0,0xfffe0
 244:	10000337          	lui	t1,0x10000
 248:	0002a383          	lw	t2,0(t0) # fffe0000 <fail+0xfffdfca0>
 24c:	0c03f393          	andi	t2,t2,192
 250:	10039863          	bnez	t2,360 <fail>
 254:	00032383          	lw	t2,0(t1) # 10000000 <fail+0xffffca0>
 258:	0002a383          	lw	t2,0(t0)
 25c:	0c03f393          	andi	t2,t2,192
 260:	fc038393          	addi	t2,t2,-64
 264:	0e039e63          	bnez	t2,360 <fail>
 268:	00732023          	sw	t2,0(t1)
 26c:	0002a383          	lw	t2,0(t0)
 270:	0c03f393          	andi	t2,t2,192
 274:	f4038393          	addi	t2,t2,-192
 278:	0e039463          	bnez	t2,360 <fail>
 27c:	900002b7          	lui	t0,0x90000
 280:	05300313          	li	t1,83
 284:	0062a023          	sw	t1,0(t0) # 90000000 <fail+0x8ffffca0>
 288:	00008067          	ret

0000028c <write_read_only>:
 28c:	100012b7          	lui	t0,0x10001
 290:	0002a023          	sw	zero,0(t0) # 10001000 <fail+0x10000ca0>
 294:	00008067          	ret

00000298 <read_execute_only_non_mxr>:
 298:	100022b7          	lui	t0,0x10002
 29c:	0002a003          	lw	zero,0(t0) # 10002000 <fail+0x10001ca0>
 2a0:	00008067          	ret

000002a4 <read_execute_only_set_mxr>:
 2a4:	000802b7          	lui	t0,0x80
 2a8:	1002a073          	csrs	sstatus,t0
 2ac:	100022b7          	lui	t0,0x10002
 2b0:	0002a003          	lw	zero,0(t0) # 10002000 <fail+0x10001ca0>
 2b4:	000802b7          	lui	t0,0x80
 2b8:	1002b073          	csrc	sstatus,t0
 2bc:	00008067          	ret

000002c0 <read_u_page_not_sum>:
 2c0:	000402b7          	lui	t0,0x40
 2c4:	1002b073          	csrc	sstatus,t0
 2c8:	100032b7          	lui	t0,0x10003
 2cc:	0002a003          	lw	zero,0(t0) # 10003000 <fail+0x10002ca0>
 2d0:	00008067          	ret

000002d4 <read_u_page_set_sum>:
 2d4:	000402b7          	lui	t0,0x40
 2d8:	1002a073          	csrs	sstatus,t0
 2dc:	100032b7          	lui	t0,0x10003
 2e0:	0002a003          	lw	zero,0(t0) # 10003000 <fail+0x10002ca0>
 2e4:	000402b7          	lui	t0,0x40
 2e8:	1002b073          	csrc	sstatus,t0
 2ec:	00008067          	ret

000002f0 <execute_from_non_executable>:
 2f0:	100052b7          	lui	t0,0x10005
 2f4:	ffc28293          	addi	t0,t0,-4 # 10004ffc <fail+0x10004c9c>
 2f8:	00028067          	jr	t0
 2fc:	0640006f          	j	360 <fail>

00000300 <supervisor_fetch_from_user_page>:
 300:	000402b7          	lui	t0,0x40
 304:	1002a073          	csrs	sstatus,t0
 308:	100072b7          	lui	t0,0x10007
 30c:	ffc28293          	addi	t0,t0,-4 # 10006ffc <fail+0x10006c9c>
 310:	00028067          	jr	t0
 314:	04c0006f          	j	360 <fail>

00000318 <read_from_unaligned_megapage>:
 318:	200002b7          	lui	t0,0x20000
 31c:	0002a283          	lw	t0,0(t0) # 20000000 <fail+0x1ffffca0>
 320:	00008067          	ret

00000324 <read_from_invalid_first_level_pte>:
 324:	204002b7          	lui	t0,0x20400
 328:	0002a283          	lw	t0,0(t0) # 20400000 <fail+0x203ffca0>
 32c:	00008067          	ret

00000330 <read_from_invalid_second_level_pte>:
 330:	103ff2b7          	lui	t0,0x103ff
 334:	0002a283          	lw	t0,0(t0) # 103ff000 <fail+0x103feca0>
 338:	00008067          	ret

0000033c <read_from_non_leaf_second_level_pte>:
 33c:	103fe2b7          	lui	t0,0x103fe
 340:	0002a283          	lw	t0,0(t0) # 103fe000 <fail+0x103fdca0>
 344:	00008067          	ret

00000348 <read_from_non_mapped>:
 348:	00002283          	lw	t0,0(zero) # 0 <setup_table-0xb8>
 34c:	00008067          	ret

00000350 <newline>:
 350:	900002b7          	lui	t0,0x90000
 354:	00a00313          	li	t1,10
 358:	0062a023          	sw	t1,0(t0) # 90000000 <fail+0x8ffffca0>
 35c:	00008067          	ret

00000360 <fail>:
 360:	900002b7          	lui	t0,0x90000
 364:	04600313          	li	t1,70
 368:	0062a023          	sw	t1,0(t0) # 90000000 <fail+0x8ffffca0>
 36c:	8c000073          	.word	0x8c000073
